
cc1.elf:     file format elf32-avr

Sections:
Idx Name          Size      VMA       LMA       File off  Algn
  0 .data         00000048  00800100  0000396c  00003a20  2**0
                  CONTENTS, ALLOC, LOAD, DATA
  1 .text         0000396c  00000000  00000000  000000b4  2**1
                  CONTENTS, ALLOC, LOAD, READONLY, CODE
  2 .bss          000000ca  00800148  00800148  00003a68  2**0
                  ALLOC
  3 .eeprom       00000058  00810000  00810000  00003a68  2**0
                  CONTENTS, ALLOC, LOAD, DATA
  4 .stab         00002880  00000000  00000000  00003ac0  2**2
                  CONTENTS, READONLY, DEBUGGING
  5 .stabstr      00000e71  00000000  00000000  00006340  2**0
                  CONTENTS, READONLY, DEBUGGING
  6 .comment      00000011  00000000  00000000  000071b1  2**0
                  CONTENTS, READONLY

Disassembly of section .text:

00000000 <__vectors>:
       0:	0c 94 d2 00 	jmp	0x1a4	; 0x1a4 <__ctors_end>
       4:	0c 94 ef 00 	jmp	0x1de	; 0x1de <__bad_interrupt>
       8:	0c 94 ef 00 	jmp	0x1de	; 0x1de <__bad_interrupt>
       c:	0c 94 ef 00 	jmp	0x1de	; 0x1de <__bad_interrupt>
      10:	0c 94 ef 00 	jmp	0x1de	; 0x1de <__bad_interrupt>
      14:	0c 94 ef 00 	jmp	0x1de	; 0x1de <__bad_interrupt>
      18:	0c 94 ef 00 	jmp	0x1de	; 0x1de <__bad_interrupt>
      1c:	0c 94 56 09 	jmp	0x12ac	; 0x12ac <__vector_7>
      20:	0c 94 ef 00 	jmp	0x1de	; 0x1de <__bad_interrupt>
      24:	0c 94 ef 00 	jmp	0x1de	; 0x1de <__bad_interrupt>
      28:	0c 94 ef 00 	jmp	0x1de	; 0x1de <__bad_interrupt>
      2c:	0c 94 f1 00 	jmp	0x1e2	; 0x1e2 <__vector_11>
      30:	0c 94 ef 00 	jmp	0x1de	; 0x1de <__bad_interrupt>
      34:	0c 94 ef 00 	jmp	0x1de	; 0x1de <__bad_interrupt>
      38:	0c 94 ef 00 	jmp	0x1de	; 0x1de <__bad_interrupt>
      3c:	0c 94 ef 00 	jmp	0x1de	; 0x1de <__bad_interrupt>
      40:	0c 94 ef 00 	jmp	0x1de	; 0x1de <__bad_interrupt>
      44:	0c 94 ef 00 	jmp	0x1de	; 0x1de <__bad_interrupt>
      48:	0c 94 ef 00 	jmp	0x1de	; 0x1de <__bad_interrupt>
      4c:	0c 94 ef 00 	jmp	0x1de	; 0x1de <__bad_interrupt>
      50:	0c 94 ef 00 	jmp	0x1de	; 0x1de <__bad_interrupt>
      54:	0c 94 ef 00 	jmp	0x1de	; 0x1de <__bad_interrupt>
      58:	0c 94 ef 00 	jmp	0x1de	; 0x1de <__bad_interrupt>
      5c:	0c 94 ef 00 	jmp	0x1de	; 0x1de <__bad_interrupt>
      60:	0c 94 ef 00 	jmp	0x1de	; 0x1de <__bad_interrupt>
      64:	0c 94 ef 00 	jmp	0x1de	; 0x1de <__bad_interrupt>

00000068 <sinewave>:
      68:	80 83 86 89 8c 8f 92 95 98 9c 9f a2 a5 a8 ab ae     ................
      78:	b0 b3 b6 b9 bc bf c1 c4 c7 c9 cc ce d1 d3 d5 d8     ................
      88:	da dc de e0 e2 e4 e6 e8 ea ec ed ef f0 f2 f3 f5     ................
      98:	f6 f7 f8 f9 fa fb fc fc fd fe fe ff ff ff ff ff     ................
      a8:	ff ff ff ff ff ff fe fe fd fc fc fb fa f9 f8 f7     ................
      b8:	f6 f5 f3 f2 f0 ef ed ec ea e8 e6 e4 e2 e0 de dc     ................
      c8:	da d8 d5 d3 d1 ce cc c9 c7 c4 c1 bf bc b9 b6 b3     ................
      d8:	b0 ae ab a8 a5 a2 9f 9c 98 95 92 8f 8c 89 86 83     ................
      e8:	80 7c 79 76 73 70 6d 6a 67 63 60 5d 5a 57 54 51     .|yvspmjgc`]ZWTQ
      f8:	4f 4c 49 46 43 40 3e 3b 38 36 33 31 2e 2c 2a 27     OLIFC@>;8631.,*'
     108:	25 23 21 1f 1d 1b 19 17 15 13 12 10 0f 0d 0c 0a     %#!.............
     118:	09 08 07 06 05 04 03 03 02 01 01 00 00 00 00 00     ................
     128:	00 00 00 00 00 00 01 01 02 03 03 04 05 06 07 08     ................
     138:	09 0a 0c 0d 0f 10 12 13 15 17 19 1b 1d 1f 21 23     ..............!#
     148:	25 27 2a 2c 2e 31 33 36 38 3b 3e 40 43 46 49 4c     %'*,.1368;>@CFIL
     158:	4f 51 54 57 5a 5d 60 63 67 6a 6d 70 73 76 79 7c     OQTWZ]`cgjmpsvy|

00000168 <morsechar>:
     168:	ff 80 80 80 80 80 80 80 80 80 80 80 80 e0 80 94     ................
     178:	fc 7c 3c 1c 0c 04 84 c4 e4 f4 80 80 80 8c 80 32     .|<............2
     188:	80 60 88 a8 90 40 28 d0 08 20 78 b0 48 e0 a0 f0     .`...@(.. x.H...
     198:	68 d8 50 10 c0 30 18 70 98 b8 c8 00                 h.P..0.p....

000001a4 <__ctors_end>:
     1a4:	11 24       	eor	r1, r1
     1a6:	1f be       	out	0x3f, r1	; 63
     1a8:	cf ef       	ldi	r28, 0xFF	; 255
     1aa:	d8 e0       	ldi	r29, 0x08	; 8
     1ac:	de bf       	out	0x3e, r29	; 62
     1ae:	cd bf       	out	0x3d, r28	; 61

000001b0 <__do_copy_data>:
     1b0:	11 e0       	ldi	r17, 0x01	; 1
     1b2:	a0 e0       	ldi	r26, 0x00	; 0
     1b4:	b1 e0       	ldi	r27, 0x01	; 1
     1b6:	ec e6       	ldi	r30, 0x6C	; 108
     1b8:	f9 e3       	ldi	r31, 0x39	; 57
     1ba:	02 c0       	rjmp	.+4      	; 0x1c0 <__do_copy_data+0x10>
     1bc:	05 90       	lpm	r0, Z+
     1be:	0d 92       	st	X+, r0
     1c0:	a8 34       	cpi	r26, 0x48	; 72
     1c2:	b1 07       	cpc	r27, r17
     1c4:	d9 f7       	brne	.-10     	; 0x1bc <__do_copy_data+0xc>

000001c6 <__do_clear_bss>:
     1c6:	12 e0       	ldi	r17, 0x02	; 2
     1c8:	a8 e4       	ldi	r26, 0x48	; 72
     1ca:	b1 e0       	ldi	r27, 0x01	; 1
     1cc:	01 c0       	rjmp	.+2      	; 0x1d0 <.do_clear_bss_start>

000001ce <.do_clear_bss_loop>:
     1ce:	1d 92       	st	X+, r1

000001d0 <.do_clear_bss_start>:
     1d0:	a2 31       	cpi	r26, 0x12	; 18
     1d2:	b1 07       	cpc	r27, r17
     1d4:	e1 f7       	brne	.-8      	; 0x1ce <.do_clear_bss_loop>
     1d6:	0e 94 46 0b 	call	0x168c	; 0x168c <main>
     1da:	0c 94 b4 1c 	jmp	0x3968	; 0x3968 <_exit>

000001de <__bad_interrupt>:
     1de:	0c 94 00 00 	jmp	0	; 0x0 <__vectors>

000001e2 <__vector_11>:
     1e2:	1f 92       	push	r1
     1e4:	0f 92       	push	r0
     1e6:	0f b6       	in	r0, 0x3f	; 63
     1e8:	0f 92       	push	r0
     1ea:	11 24       	eor	r1, r1
     1ec:	4f 93       	push	r20
     1ee:	5f 93       	push	r21
     1f0:	6f 93       	push	r22
     1f2:	7f 93       	push	r23
     1f4:	8f 93       	push	r24
     1f6:	9f 93       	push	r25
     1f8:	af 93       	push	r26
     1fa:	bf 93       	push	r27
     1fc:	ef 93       	push	r30
     1fe:	ff 93       	push	r31
     200:	f8 94       	cli
     202:	80 91 4b 01 	lds	r24, 0x014B
     206:	81 30       	cpi	r24, 0x01	; 1
     208:	b9 f5       	brne	.+110    	; 0x278 <__vector_11+0x96>
     20a:	56 9a       	sbi	0x0a, 6	; 10
     20c:	8b b1       	in	r24, 0x0b	; 11
     20e:	90 e4       	ldi	r25, 0x40	; 64
     210:	89 27       	eor	r24, r25
     212:	8b b9       	out	0x0b, r24	; 11
     214:	40 91 af 01 	lds	r20, 0x01AF
     218:	50 91 b0 01 	lds	r21, 0x01B0
     21c:	60 91 b1 01 	lds	r22, 0x01B1
     220:	70 91 b2 01 	lds	r23, 0x01B2
     224:	80 91 c3 01 	lds	r24, 0x01C3
     228:	90 91 c4 01 	lds	r25, 0x01C4
     22c:	a0 91 c5 01 	lds	r26, 0x01C5
     230:	b0 91 c6 01 	lds	r27, 0x01C6
     234:	84 0f       	add	r24, r20
     236:	95 1f       	adc	r25, r21
     238:	a6 1f       	adc	r26, r22
     23a:	b7 1f       	adc	r27, r23
     23c:	80 93 af 01 	sts	0x01AF, r24
     240:	90 93 b0 01 	sts	0x01B0, r25
     244:	a0 93 b1 01 	sts	0x01B1, r26
     248:	b0 93 b2 01 	sts	0x01B2, r27
     24c:	80 91 af 01 	lds	r24, 0x01AF
     250:	90 91 b0 01 	lds	r25, 0x01B0
     254:	a0 91 b1 01 	lds	r26, 0x01B1
     258:	b0 91 b2 01 	lds	r27, 0x01B2
     25c:	8b 2f       	mov	r24, r27
     25e:	99 27       	eor	r25, r25
     260:	aa 27       	eor	r26, r26
     262:	bb 27       	eor	r27, r27
     264:	80 93 a2 01 	sts	0x01A2, r24
     268:	e0 91 a2 01 	lds	r30, 0x01A2
     26c:	f0 e0       	ldi	r31, 0x00	; 0
     26e:	e8 59       	subi	r30, 0x98	; 152
     270:	ff 4f       	sbci	r31, 0xFF	; 255
     272:	e4 91       	lpm	r30, Z+
     274:	e7 bd       	out	0x27, r30	; 39
     276:	02 c0       	rjmp	.+4      	; 0x27c <__vector_11+0x9a>
     278:	56 98       	cbi	0x0a, 6	; 10
     27a:	5e 98       	cbi	0x0b, 6	; 11
     27c:	78 94       	sei
     27e:	ff 91       	pop	r31
     280:	ef 91       	pop	r30
     282:	bf 91       	pop	r27
     284:	af 91       	pop	r26
     286:	9f 91       	pop	r25
     288:	8f 91       	pop	r24
     28a:	7f 91       	pop	r23
     28c:	6f 91       	pop	r22
     28e:	5f 91       	pop	r21
     290:	4f 91       	pop	r20
     292:	0f 90       	pop	r0
     294:	0f be       	out	0x3f, r0	; 63
     296:	0f 90       	pop	r0
     298:	1f 90       	pop	r1
     29a:	18 95       	reti

0000029c <set_wpm>:
     29c:	68 2f       	mov	r22, r24
     29e:	80 eb       	ldi	r24, 0xB0	; 176
     2a0:	94 e0       	ldi	r25, 0x04	; 4
     2a2:	70 e0       	ldi	r23, 0x00	; 0
     2a4:	0e 94 ff 17 	call	0x2ffe	; 0x2ffe <__divmodhi4>
     2a8:	70 93 ae 01 	sts	0x01AE, r23
     2ac:	60 93 ad 01 	sts	0x01AD, r22
     2b0:	08 95       	ret

000002b2 <debounce>:
     2b2:	81 30       	cpi	r24, 0x01	; 1
     2b4:	41 f5       	brne	.+80     	; 0x306 <debounce+0x54>
     2b6:	10 92 4e 01 	sts	0x014E, r1
     2ba:	10 92 4d 01 	sts	0x014D, r1
     2be:	10 92 50 01 	sts	0x0150, r1
     2c2:	10 92 4f 01 	sts	0x014F, r1
     2c6:	10 92 52 01 	sts	0x0152, r1
     2ca:	10 92 51 01 	sts	0x0151, r1
     2ce:	10 92 54 01 	sts	0x0154, r1
     2d2:	10 92 53 01 	sts	0x0153, r1
     2d6:	10 92 56 01 	sts	0x0156, r1
     2da:	10 92 55 01 	sts	0x0155, r1
     2de:	10 92 58 01 	sts	0x0158, r1
     2e2:	10 92 57 01 	sts	0x0157, r1
     2e6:	10 92 5a 01 	sts	0x015A, r1
     2ea:	10 92 59 01 	sts	0x0159, r1
     2ee:	10 92 5c 01 	sts	0x015C, r1
     2f2:	10 92 5b 01 	sts	0x015B, r1
     2f6:	10 92 5e 01 	sts	0x015E, r1
     2fa:	10 92 5d 01 	sts	0x015D, r1
     2fe:	10 92 60 01 	sts	0x0160, r1
     302:	10 92 5f 01 	sts	0x015F, r1
     306:	4b 99       	sbic	0x09, 3	; 9
     308:	11 c0       	rjmp	.+34     	; 0x32c <debounce+0x7a>
     30a:	80 91 4d 01 	lds	r24, 0x014D
     30e:	90 91 4e 01 	lds	r25, 0x014E
     312:	85 30       	cpi	r24, 0x05	; 5
     314:	91 05       	cpc	r25, r1
     316:	28 f4       	brcc	.+10     	; 0x322 <debounce+0x70>
     318:	01 96       	adiw	r24, 0x01	; 1
     31a:	90 93 4e 01 	sts	0x014E, r25
     31e:	80 93 4d 01 	sts	0x014D, r24
     322:	10 92 52 01 	sts	0x0152, r1
     326:	10 92 51 01 	sts	0x0151, r1
     32a:	10 c0       	rjmp	.+32     	; 0x34c <debounce+0x9a>
     32c:	80 91 51 01 	lds	r24, 0x0151
     330:	90 91 52 01 	lds	r25, 0x0152
     334:	85 30       	cpi	r24, 0x05	; 5
     336:	91 05       	cpc	r25, r1
     338:	28 f4       	brcc	.+10     	; 0x344 <debounce+0x92>
     33a:	01 96       	adiw	r24, 0x01	; 1
     33c:	90 93 52 01 	sts	0x0152, r25
     340:	80 93 51 01 	sts	0x0151, r24
     344:	10 92 4e 01 	sts	0x014E, r1
     348:	10 92 4d 01 	sts	0x014D, r1
     34c:	4c 99       	sbic	0x09, 4	; 9
     34e:	11 c0       	rjmp	.+34     	; 0x372 <debounce+0xc0>
     350:	80 91 4f 01 	lds	r24, 0x014F
     354:	90 91 50 01 	lds	r25, 0x0150
     358:	85 30       	cpi	r24, 0x05	; 5
     35a:	91 05       	cpc	r25, r1
     35c:	28 f4       	brcc	.+10     	; 0x368 <debounce+0xb6>
     35e:	01 96       	adiw	r24, 0x01	; 1
     360:	90 93 50 01 	sts	0x0150, r25
     364:	80 93 4f 01 	sts	0x014F, r24
     368:	10 92 54 01 	sts	0x0154, r1
     36c:	10 92 53 01 	sts	0x0153, r1
     370:	10 c0       	rjmp	.+32     	; 0x392 <debounce+0xe0>
     372:	80 91 53 01 	lds	r24, 0x0153
     376:	90 91 54 01 	lds	r25, 0x0154
     37a:	85 30       	cpi	r24, 0x05	; 5
     37c:	91 05       	cpc	r25, r1
     37e:	28 f4       	brcc	.+10     	; 0x38a <debounce+0xd8>
     380:	01 96       	adiw	r24, 0x01	; 1
     382:	90 93 54 01 	sts	0x0154, r25
     386:	80 93 53 01 	sts	0x0153, r24
     38a:	10 92 50 01 	sts	0x0150, r1
     38e:	10 92 4f 01 	sts	0x014F, r1
     392:	80 91 4d 01 	lds	r24, 0x014D
     396:	90 91 4e 01 	lds	r25, 0x014E
     39a:	05 97       	sbiw	r24, 0x05	; 5
     39c:	18 f0       	brcs	.+6      	; 0x3a4 <debounce+0xf2>
     39e:	81 e0       	ldi	r24, 0x01	; 1
     3a0:	80 93 f7 01 	sts	0x01F7, r24
     3a4:	80 91 51 01 	lds	r24, 0x0151
     3a8:	90 91 52 01 	lds	r25, 0x0152
     3ac:	05 97       	sbiw	r24, 0x05	; 5
     3ae:	10 f0       	brcs	.+4      	; 0x3b4 <debounce+0x102>
     3b0:	10 92 f7 01 	sts	0x01F7, r1
     3b4:	80 91 4f 01 	lds	r24, 0x014F
     3b8:	90 91 50 01 	lds	r25, 0x0150
     3bc:	05 97       	sbiw	r24, 0x05	; 5
     3be:	18 f0       	brcs	.+6      	; 0x3c6 <debounce+0x114>
     3c0:	81 e0       	ldi	r24, 0x01	; 1
     3c2:	80 93 d5 01 	sts	0x01D5, r24
     3c6:	80 91 53 01 	lds	r24, 0x0153
     3ca:	90 91 54 01 	lds	r25, 0x0154
     3ce:	05 97       	sbiw	r24, 0x05	; 5
     3d0:	10 f0       	brcs	.+4      	; 0x3d6 <debounce+0x124>
     3d2:	10 92 d5 01 	sts	0x01D5, r1
     3d6:	80 91 59 01 	lds	r24, 0x0159
     3da:	90 91 5a 01 	lds	r25, 0x015A
     3de:	4a 99       	sbic	0x09, 2	; 9
     3e0:	08 c0       	rjmp	.+16     	; 0x3f2 <debounce+0x140>
     3e2:	4d 99       	sbic	0x09, 5	; 9
     3e4:	06 c0       	rjmp	.+12     	; 0x3f2 <debounce+0x140>
     3e6:	01 96       	adiw	r24, 0x01	; 1
     3e8:	90 93 5a 01 	sts	0x015A, r25
     3ec:	80 93 59 01 	sts	0x0159, r24
     3f0:	15 c0       	rjmp	.+42     	; 0x41c <debounce+0x16a>
     3f2:	9c 01       	movw	r18, r24
     3f4:	25 50       	subi	r18, 0x05	; 5
     3f6:	31 09       	sbc	r19, r1
     3f8:	2f 3e       	cpi	r18, 0xEF	; 239
     3fa:	31 40       	sbci	r19, 0x01	; 1
     3fc:	10 f4       	brcc	.+4      	; 0x402 <debounce+0x150>
     3fe:	81 e0       	ldi	r24, 0x01	; 1
     400:	04 c0       	rjmp	.+8      	; 0x40a <debounce+0x158>
     402:	84 3f       	cpi	r24, 0xF4	; 244
     404:	91 40       	sbci	r25, 0x01	; 1
     406:	20 f0       	brcs	.+8      	; 0x410 <debounce+0x15e>
     408:	82 e0       	ldi	r24, 0x02	; 2
     40a:	80 93 db 01 	sts	0x01DB, r24
     40e:	02 c0       	rjmp	.+4      	; 0x414 <debounce+0x162>
     410:	10 92 db 01 	sts	0x01DB, r1
     414:	10 92 5a 01 	sts	0x015A, r1
     418:	10 92 59 01 	sts	0x0159, r1
     41c:	80 91 55 01 	lds	r24, 0x0155
     420:	90 91 56 01 	lds	r25, 0x0156
     424:	4a 99       	sbic	0x09, 2	; 9
     426:	06 c0       	rjmp	.+12     	; 0x434 <debounce+0x182>
     428:	01 96       	adiw	r24, 0x01	; 1
     42a:	90 93 56 01 	sts	0x0156, r25
     42e:	80 93 55 01 	sts	0x0155, r24
     432:	15 c0       	rjmp	.+42     	; 0x45e <debounce+0x1ac>
     434:	9c 01       	movw	r18, r24
     436:	25 50       	subi	r18, 0x05	; 5
     438:	31 09       	sbc	r19, r1
     43a:	2f 3e       	cpi	r18, 0xEF	; 239
     43c:	31 40       	sbci	r19, 0x01	; 1
     43e:	10 f4       	brcc	.+4      	; 0x444 <debounce+0x192>
     440:	81 e0       	ldi	r24, 0x01	; 1
     442:	04 c0       	rjmp	.+8      	; 0x44c <debounce+0x19a>
     444:	84 3f       	cpi	r24, 0xF4	; 244
     446:	91 40       	sbci	r25, 0x01	; 1
     448:	20 f0       	brcs	.+8      	; 0x452 <debounce+0x1a0>
     44a:	82 e0       	ldi	r24, 0x02	; 2
     44c:	80 93 dc 01 	sts	0x01DC, r24
     450:	02 c0       	rjmp	.+4      	; 0x456 <debounce+0x1a4>
     452:	10 92 dc 01 	sts	0x01DC, r1
     456:	10 92 56 01 	sts	0x0156, r1
     45a:	10 92 55 01 	sts	0x0155, r1
     45e:	80 91 57 01 	lds	r24, 0x0157
     462:	90 91 58 01 	lds	r25, 0x0158
     466:	4d 99       	sbic	0x09, 5	; 9
     468:	06 c0       	rjmp	.+12     	; 0x476 <debounce+0x1c4>
     46a:	01 96       	adiw	r24, 0x01	; 1
     46c:	90 93 58 01 	sts	0x0158, r25
     470:	80 93 57 01 	sts	0x0157, r24
     474:	15 c0       	rjmp	.+42     	; 0x4a0 <debounce+0x1ee>
     476:	9c 01       	movw	r18, r24
     478:	25 50       	subi	r18, 0x05	; 5
     47a:	31 09       	sbc	r19, r1
     47c:	2f 3e       	cpi	r18, 0xEF	; 239
     47e:	31 40       	sbci	r19, 0x01	; 1
     480:	10 f4       	brcc	.+4      	; 0x486 <debounce+0x1d4>
     482:	81 e0       	ldi	r24, 0x01	; 1
     484:	04 c0       	rjmp	.+8      	; 0x48e <debounce+0x1dc>
     486:	84 3f       	cpi	r24, 0xF4	; 244
     488:	91 40       	sbci	r25, 0x01	; 1
     48a:	20 f0       	brcs	.+8      	; 0x494 <debounce+0x1e2>
     48c:	82 e0       	ldi	r24, 0x02	; 2
     48e:	80 93 da 01 	sts	0x01DA, r24
     492:	02 c0       	rjmp	.+4      	; 0x498 <debounce+0x1e6>
     494:	10 92 da 01 	sts	0x01DA, r1
     498:	10 92 58 01 	sts	0x0158, r1
     49c:	10 92 57 01 	sts	0x0157, r1
     4a0:	80 91 5b 01 	lds	r24, 0x015B
     4a4:	90 91 5c 01 	lds	r25, 0x015C
     4a8:	33 99       	sbic	0x06, 3	; 6
     4aa:	06 c0       	rjmp	.+12     	; 0x4b8 <debounce+0x206>
     4ac:	01 96       	adiw	r24, 0x01	; 1
     4ae:	90 93 5c 01 	sts	0x015C, r25
     4b2:	80 93 5b 01 	sts	0x015B, r24
     4b6:	15 c0       	rjmp	.+42     	; 0x4e2 <debounce+0x230>
     4b8:	9c 01       	movw	r18, r24
     4ba:	25 50       	subi	r18, 0x05	; 5
     4bc:	31 09       	sbc	r19, r1
     4be:	2f 3e       	cpi	r18, 0xEF	; 239
     4c0:	31 40       	sbci	r19, 0x01	; 1
     4c2:	10 f4       	brcc	.+4      	; 0x4c8 <debounce+0x216>
     4c4:	81 e0       	ldi	r24, 0x01	; 1
     4c6:	04 c0       	rjmp	.+8      	; 0x4d0 <debounce+0x21e>
     4c8:	84 3f       	cpi	r24, 0xF4	; 244
     4ca:	91 40       	sbci	r25, 0x01	; 1
     4cc:	20 f0       	brcs	.+8      	; 0x4d6 <debounce+0x224>
     4ce:	82 e0       	ldi	r24, 0x02	; 2
     4d0:	80 93 ee 01 	sts	0x01EE, r24
     4d4:	02 c0       	rjmp	.+4      	; 0x4da <debounce+0x228>
     4d6:	10 92 ee 01 	sts	0x01EE, r1
     4da:	10 92 5c 01 	sts	0x015C, r1
     4de:	10 92 5b 01 	sts	0x015B, r1
     4e2:	18 99       	sbic	0x03, 0	; 3
     4e4:	11 c0       	rjmp	.+34     	; 0x508 <debounce+0x256>
     4e6:	80 91 5d 01 	lds	r24, 0x015D
     4ea:	90 91 5e 01 	lds	r25, 0x015E
     4ee:	85 30       	cpi	r24, 0x05	; 5
     4f0:	91 05       	cpc	r25, r1
     4f2:	28 f4       	brcc	.+10     	; 0x4fe <debounce+0x24c>
     4f4:	01 96       	adiw	r24, 0x01	; 1
     4f6:	90 93 5e 01 	sts	0x015E, r25
     4fa:	80 93 5d 01 	sts	0x015D, r24
     4fe:	10 92 62 01 	sts	0x0162, r1
     502:	10 92 61 01 	sts	0x0161, r1
     506:	10 c0       	rjmp	.+32     	; 0x528 <debounce+0x276>
     508:	80 91 61 01 	lds	r24, 0x0161
     50c:	90 91 62 01 	lds	r25, 0x0162
     510:	85 30       	cpi	r24, 0x05	; 5
     512:	91 05       	cpc	r25, r1
     514:	28 f4       	brcc	.+10     	; 0x520 <debounce+0x26e>
     516:	01 96       	adiw	r24, 0x01	; 1
     518:	90 93 62 01 	sts	0x0162, r25
     51c:	80 93 61 01 	sts	0x0161, r24
     520:	10 92 5e 01 	sts	0x015E, r1
     524:	10 92 5d 01 	sts	0x015D, r1
     528:	4f 99       	sbic	0x09, 7	; 9
     52a:	11 c0       	rjmp	.+34     	; 0x54e <debounce+0x29c>
     52c:	80 91 5f 01 	lds	r24, 0x015F
     530:	90 91 60 01 	lds	r25, 0x0160
     534:	85 30       	cpi	r24, 0x05	; 5
     536:	91 05       	cpc	r25, r1
     538:	28 f4       	brcc	.+10     	; 0x544 <debounce+0x292>
     53a:	01 96       	adiw	r24, 0x01	; 1
     53c:	90 93 60 01 	sts	0x0160, r25
     540:	80 93 5f 01 	sts	0x015F, r24
     544:	10 92 64 01 	sts	0x0164, r1
     548:	10 92 63 01 	sts	0x0163, r1
     54c:	10 c0       	rjmp	.+32     	; 0x56e <debounce+0x2bc>
     54e:	80 91 63 01 	lds	r24, 0x0163
     552:	90 91 64 01 	lds	r25, 0x0164
     556:	85 30       	cpi	r24, 0x05	; 5
     558:	91 05       	cpc	r25, r1
     55a:	28 f4       	brcc	.+10     	; 0x566 <debounce+0x2b4>
     55c:	01 96       	adiw	r24, 0x01	; 1
     55e:	90 93 64 01 	sts	0x0164, r25
     562:	80 93 63 01 	sts	0x0163, r24
     566:	10 92 60 01 	sts	0x0160, r1
     56a:	10 92 5f 01 	sts	0x015F, r1
     56e:	80 91 5d 01 	lds	r24, 0x015D
     572:	90 91 5e 01 	lds	r25, 0x015E
     576:	05 97       	sbiw	r24, 0x05	; 5
     578:	18 f0       	brcs	.+6      	; 0x580 <debounce+0x2ce>
     57a:	81 e0       	ldi	r24, 0x01	; 1
     57c:	80 93 9d 01 	sts	0x019D, r24
     580:	80 91 61 01 	lds	r24, 0x0161
     584:	90 91 62 01 	lds	r25, 0x0162
     588:	05 97       	sbiw	r24, 0x05	; 5
     58a:	10 f0       	brcs	.+4      	; 0x590 <debounce+0x2de>
     58c:	10 92 9d 01 	sts	0x019D, r1
     590:	80 91 5f 01 	lds	r24, 0x015F
     594:	90 91 60 01 	lds	r25, 0x0160
     598:	05 97       	sbiw	r24, 0x05	; 5
     59a:	18 f0       	brcs	.+6      	; 0x5a2 <debounce+0x2f0>
     59c:	81 e0       	ldi	r24, 0x01	; 1
     59e:	80 93 0c 02 	sts	0x020C, r24
     5a2:	80 91 63 01 	lds	r24, 0x0163
     5a6:	90 91 64 01 	lds	r25, 0x0164
     5aa:	05 97       	sbiw	r24, 0x05	; 5
     5ac:	10 f0       	brcs	.+4      	; 0x5b2 <debounce+0x300>
     5ae:	10 92 0c 02 	sts	0x020C, r1
     5b2:	08 95       	ret

000005b4 <announce>:
     5b4:	ff 92       	push	r15
     5b6:	0f 93       	push	r16
     5b8:	1f 93       	push	r17
     5ba:	cf 93       	push	r28
     5bc:	df 93       	push	r29
     5be:	8c 01       	movw	r16, r24
     5c0:	eb 01       	movw	r28, r22
     5c2:	f4 2e       	mov	r15, r20
     5c4:	0e 94 8f 19 	call	0x331e	; 0x331e <strupr>
     5c8:	b8 01       	movw	r22, r16
     5ca:	80 91 06 02 	lds	r24, 0x0206
     5ce:	90 91 07 02 	lds	r25, 0x0207
     5d2:	0e 94 78 19 	call	0x32f0	; 0x32f0 <strcpy>
     5d6:	80 91 e1 01 	lds	r24, 0x01E1
     5da:	80 93 ac 01 	sts	0x01AC, r24
     5de:	80 91 ef 01 	lds	r24, 0x01EF
     5e2:	90 91 f0 01 	lds	r25, 0x01F0
     5e6:	a0 91 f1 01 	lds	r26, 0x01F1
     5ea:	b0 91 f2 01 	lds	r27, 0x01F2
     5ee:	80 93 c7 01 	sts	0x01C7, r24
     5f2:	90 93 c8 01 	sts	0x01C8, r25
     5f6:	a0 93 c9 01 	sts	0x01C9, r26
     5fa:	b0 93 ca 01 	sts	0x01CA, r27
     5fe:	80 91 b3 01 	lds	r24, 0x01B3
     602:	80 93 cb 01 	sts	0x01CB, r24
     606:	80 91 cd 01 	lds	r24, 0x01CD
     60a:	90 91 ce 01 	lds	r25, 0x01CE
     60e:	90 93 e7 01 	sts	0x01E7, r25
     612:	80 93 e6 01 	sts	0x01E6, r24
     616:	d0 93 ce 01 	sts	0x01CE, r29
     61a:	c0 93 cd 01 	sts	0x01CD, r28
     61e:	80 91 01 02 	lds	r24, 0x0201
     622:	80 93 0d 02 	sts	0x020D, r24
     626:	f0 92 01 02 	sts	0x0201, r15
     62a:	de 01       	movw	r26, r28
     62c:	29 eb       	ldi	r18, 0xB9	; 185
     62e:	3d e8       	ldi	r19, 0x8D	; 141
     630:	46 e0       	ldi	r20, 0x06	; 6
     632:	50 e0       	ldi	r21, 0x00	; 0
     634:	0e 94 d0 17 	call	0x2fa0	; 0x2fa0 <__muluhisi3>
     638:	60 93 c3 01 	sts	0x01C3, r22
     63c:	70 93 c4 01 	sts	0x01C4, r23
     640:	80 93 c5 01 	sts	0x01C5, r24
     644:	90 93 c6 01 	sts	0x01C6, r25
     648:	6f 2d       	mov	r22, r15
     64a:	80 eb       	ldi	r24, 0xB0	; 176
     64c:	94 e0       	ldi	r25, 0x04	; 4
     64e:	70 e0       	ldi	r23, 0x00	; 0
     650:	0e 94 ff 17 	call	0x2ffe	; 0x2ffe <__divmodhi4>
     654:	70 93 ae 01 	sts	0x01AE, r23
     658:	60 93 ad 01 	sts	0x01AD, r22
     65c:	81 e0       	ldi	r24, 0x01	; 1
     65e:	80 93 e1 01 	sts	0x01E1, r24
     662:	82 e0       	ldi	r24, 0x02	; 2
     664:	80 93 b3 01 	sts	0x01B3, r24
     668:	df 91       	pop	r29
     66a:	cf 91       	pop	r28
     66c:	1f 91       	pop	r17
     66e:	0f 91       	pop	r16
     670:	ff 90       	pop	r15
     672:	08 95       	ret

00000674 <read_voltage>:
     674:	cf 93       	push	r28
     676:	df 93       	push	r29
     678:	80 91 7a 00 	lds	r24, 0x007A
     67c:	84 68       	ori	r24, 0x84	; 132
     67e:	80 93 7a 00 	sts	0x007A, r24
     682:	82 e6       	ldi	r24, 0x62	; 98
     684:	80 93 7c 00 	sts	0x007C, r24
     688:	8a e0       	ldi	r24, 0x0A	; 10
     68a:	90 e0       	ldi	r25, 0x00	; 0
     68c:	0e 94 41 18 	call	0x3082	; 0x3082 <malloc>
     690:	d8 2f       	mov	r29, r24
     692:	c9 2f       	mov	r28, r25
     694:	80 91 7a 00 	lds	r24, 0x007A
     698:	80 64       	ori	r24, 0x40	; 64
     69a:	80 93 7a 00 	sts	0x007A, r24
     69e:	80 91 7a 00 	lds	r24, 0x007A
     6a2:	86 fd       	sbrc	r24, 6
     6a4:	fc cf       	rjmp	.-8      	; 0x69e <read_voltage+0x2a>
     6a6:	20 91 79 00 	lds	r18, 0x0079
     6aa:	81 ea       	ldi	r24, 0xA1	; 161
     6ac:	28 9f       	mul	r18, r24
     6ae:	90 01       	movw	r18, r0
     6b0:	11 24       	eor	r1, r1
     6b2:	83 2f       	mov	r24, r19
     6b4:	90 e0       	ldi	r25, 0x00	; 0
     6b6:	6a e0       	ldi	r22, 0x0A	; 10
     6b8:	70 e0       	ldi	r23, 0x00	; 0
     6ba:	0e 94 eb 17 	call	0x2fd6	; 0x2fd6 <__udivmodhi4>
     6be:	9f 93       	push	r25
     6c0:	8f 93       	push	r24
     6c2:	7f 93       	push	r23
     6c4:	6f 93       	push	r22
     6c6:	21 e1       	ldi	r18, 0x11	; 17
     6c8:	31 e0       	ldi	r19, 0x01	; 1
     6ca:	3f 93       	push	r19
     6cc:	2f 93       	push	r18
     6ce:	cf 93       	push	r28
     6d0:	df 93       	push	r29
     6d2:	0e 94 99 19 	call	0x3332	; 0x3332 <sprintf>
     6d6:	60 91 cd 01 	lds	r22, 0x01CD
     6da:	70 91 ce 01 	lds	r23, 0x01CE
     6de:	40 91 01 02 	lds	r20, 0x0201
     6e2:	8d 2f       	mov	r24, r29
     6e4:	9c 2f       	mov	r25, r28
     6e6:	0e 94 da 02 	call	0x5b4	; 0x5b4 <announce>
     6ea:	8d b7       	in	r24, 0x3d	; 61
     6ec:	9e b7       	in	r25, 0x3e	; 62
     6ee:	08 96       	adiw	r24, 0x08	; 8
     6f0:	0f b6       	in	r0, 0x3f	; 63
     6f2:	f8 94       	cli
     6f4:	9e bf       	out	0x3e, r25	; 62
     6f6:	0f be       	out	0x3f, r0	; 63
     6f8:	8d bf       	out	0x3d, r24	; 61
     6fa:	8d 2f       	mov	r24, r29
     6fc:	9c 2f       	mov	r25, r28
     6fe:	df 91       	pop	r29
     700:	cf 91       	pop	r28
     702:	0c 94 dc 18 	jmp	0x31b8	; 0x31b8 <free>

00000706 <count_frequency>:
     706:	8f 92       	push	r8
     708:	9f 92       	push	r9
     70a:	af 92       	push	r10
     70c:	bf 92       	push	r11
     70e:	cf 92       	push	r12
     710:	df 92       	push	r13
     712:	ef 92       	push	r14
     714:	ff 92       	push	r15
     716:	cf 93       	push	r28
     718:	df 93       	push	r29
     71a:	8f e0       	ldi	r24, 0x0F	; 15
     71c:	90 e0       	ldi	r25, 0x00	; 0
     71e:	0e 94 41 18 	call	0x3082	; 0x3082 <malloc>
     722:	d8 2f       	mov	r29, r24
     724:	c9 2f       	mov	r28, r25
     726:	80 91 ed 01 	lds	r24, 0x01ED
     72a:	82 30       	cpi	r24, 0x02	; 2
     72c:	29 f0       	breq	.+10     	; 0x738 <count_frequency+0x32>
     72e:	80 91 ed 01 	lds	r24, 0x01ED
     732:	81 30       	cpi	r24, 0x01	; 1
     734:	09 f0       	breq	.+2      	; 0x738 <count_frequency+0x32>
     736:	73 c0       	rjmp	.+230    	; 0x81e <count_frequency+0x118>
     738:	80 91 e3 01 	lds	r24, 0x01E3
     73c:	90 91 e4 01 	lds	r25, 0x01E4
     740:	97 ff       	sbrs	r25, 7
     742:	39 c0       	rjmp	.+114    	; 0x7b6 <count_frequency+0xb0>
     744:	80 91 e3 01 	lds	r24, 0x01E3
     748:	90 91 e4 01 	lds	r25, 0x01E4
     74c:	20 91 e3 01 	lds	r18, 0x01E3
     750:	30 91 e4 01 	lds	r19, 0x01E4
     754:	68 ee       	ldi	r22, 0xE8	; 232
     756:	73 e0       	ldi	r23, 0x03	; 3
     758:	0e 94 ff 17 	call	0x2ffe	; 0x2ffe <__divmodhi4>
     75c:	6a e0       	ldi	r22, 0x0A	; 10
     75e:	70 e0       	ldi	r23, 0x00	; 0
     760:	0e 94 ff 17 	call	0x2ffe	; 0x2ffe <__divmodhi4>
     764:	77 ff       	sbrs	r23, 7
     766:	03 c0       	rjmp	.+6      	; 0x76e <count_frequency+0x68>
     768:	71 95       	neg	r23
     76a:	61 95       	neg	r22
     76c:	71 09       	sbc	r23, r1
     76e:	7f 93       	push	r23
     770:	6f 93       	push	r22
     772:	c9 01       	movw	r24, r18
     774:	68 ee       	ldi	r22, 0xE8	; 232
     776:	73 e0       	ldi	r23, 0x03	; 3
     778:	0e 94 ff 17 	call	0x2ffe	; 0x2ffe <__divmodhi4>
     77c:	cb 01       	movw	r24, r22
     77e:	64 e6       	ldi	r22, 0x64	; 100
     780:	70 e0       	ldi	r23, 0x00	; 0
     782:	0e 94 ff 17 	call	0x2ffe	; 0x2ffe <__divmodhi4>
     786:	97 ff       	sbrs	r25, 7
     788:	03 c0       	rjmp	.+6      	; 0x790 <count_frequency+0x8a>
     78a:	91 95       	neg	r25
     78c:	81 95       	neg	r24
     78e:	91 09       	sbc	r25, r1
     790:	9f 93       	push	r25
     792:	8f 93       	push	r24
     794:	87 e1       	ldi	r24, 0x17	; 23
     796:	91 e0       	ldi	r25, 0x01	; 1
     798:	9f 93       	push	r25
     79a:	8f 93       	push	r24
     79c:	cf 93       	push	r28
     79e:	df 93       	push	r29
     7a0:	0e 94 99 19 	call	0x3332	; 0x3332 <sprintf>
     7a4:	8d b7       	in	r24, 0x3d	; 61
     7a6:	9e b7       	in	r25, 0x3e	; 62
     7a8:	08 96       	adiw	r24, 0x08	; 8
     7aa:	0f b6       	in	r0, 0x3f	; 63
     7ac:	f8 94       	cli
     7ae:	9e bf       	out	0x3e, r25	; 62
     7b0:	0f be       	out	0x3f, r0	; 63
     7b2:	8d bf       	out	0x3d, r24	; 61
     7b4:	76 c0       	rjmp	.+236    	; 0x8a2 <count_frequency+0x19c>
     7b6:	80 91 e3 01 	lds	r24, 0x01E3
     7ba:	90 91 e4 01 	lds	r25, 0x01E4
     7be:	20 91 e3 01 	lds	r18, 0x01E3
     7c2:	30 91 e4 01 	lds	r19, 0x01E4
     7c6:	68 ee       	ldi	r22, 0xE8	; 232
     7c8:	73 e0       	ldi	r23, 0x03	; 3
     7ca:	0e 94 ff 17 	call	0x2ffe	; 0x2ffe <__divmodhi4>
     7ce:	6a e0       	ldi	r22, 0x0A	; 10
     7d0:	70 e0       	ldi	r23, 0x00	; 0
     7d2:	0e 94 ff 17 	call	0x2ffe	; 0x2ffe <__divmodhi4>
     7d6:	77 ff       	sbrs	r23, 7
     7d8:	03 c0       	rjmp	.+6      	; 0x7e0 <count_frequency+0xda>
     7da:	71 95       	neg	r23
     7dc:	61 95       	neg	r22
     7de:	71 09       	sbc	r23, r1
     7e0:	7f 93       	push	r23
     7e2:	6f 93       	push	r22
     7e4:	c9 01       	movw	r24, r18
     7e6:	68 ee       	ldi	r22, 0xE8	; 232
     7e8:	73 e0       	ldi	r23, 0x03	; 3
     7ea:	0e 94 ff 17 	call	0x2ffe	; 0x2ffe <__divmodhi4>
     7ee:	cb 01       	movw	r24, r22
     7f0:	64 e6       	ldi	r22, 0x64	; 100
     7f2:	70 e0       	ldi	r23, 0x00	; 0
     7f4:	0e 94 ff 17 	call	0x2ffe	; 0x2ffe <__divmodhi4>
     7f8:	9f 93       	push	r25
     7fa:	8f 93       	push	r24
     7fc:	88 e1       	ldi	r24, 0x18	; 24
     7fe:	91 e0       	ldi	r25, 0x01	; 1
     800:	9f 93       	push	r25
     802:	8f 93       	push	r24
     804:	cf 93       	push	r28
     806:	df 93       	push	r29
     808:	0e 94 99 19 	call	0x3332	; 0x3332 <sprintf>
     80c:	8d b7       	in	r24, 0x3d	; 61
     80e:	9e b7       	in	r25, 0x3e	; 62
     810:	08 96       	adiw	r24, 0x08	; 8
     812:	0f b6       	in	r0, 0x3f	; 63
     814:	f8 94       	cli
     816:	9e bf       	out	0x3e, r25	; 62
     818:	0f be       	out	0x3f, r0	; 63
     81a:	8d bf       	out	0x3d, r24	; 61
     81c:	42 c0       	rjmp	.+132    	; 0x8a2 <count_frequency+0x19c>
     81e:	60 91 fd 01 	lds	r22, 0x01FD
     822:	70 91 fe 01 	lds	r23, 0x01FE
     826:	80 91 ff 01 	lds	r24, 0x01FF
     82a:	90 91 00 02 	lds	r25, 0x0200
     82e:	80 90 fd 01 	lds	r8, 0x01FD
     832:	90 90 fe 01 	lds	r9, 0x01FE
     836:	a0 90 ff 01 	lds	r10, 0x01FF
     83a:	b0 90 00 02 	lds	r11, 0x0200
     83e:	58 ee       	ldi	r21, 0xE8	; 232
     840:	c5 2e       	mov	r12, r21
     842:	53 e0       	ldi	r21, 0x03	; 3
     844:	d5 2e       	mov	r13, r21
     846:	e1 2c       	mov	r14, r1
     848:	f1 2c       	mov	r15, r1
     84a:	a7 01       	movw	r20, r14
     84c:	96 01       	movw	r18, r12
     84e:	0e 94 13 18 	call	0x3026	; 0x3026 <__udivmodsi4>
     852:	2a e0       	ldi	r18, 0x0A	; 10
     854:	30 e0       	ldi	r19, 0x00	; 0
     856:	40 e0       	ldi	r20, 0x00	; 0
     858:	50 e0       	ldi	r21, 0x00	; 0
     85a:	0e 94 13 18 	call	0x3026	; 0x3026 <__udivmodsi4>
     85e:	3f 93       	push	r19
     860:	2f 93       	push	r18
     862:	c5 01       	movw	r24, r10
     864:	b4 01       	movw	r22, r8
     866:	a7 01       	movw	r20, r14
     868:	96 01       	movw	r18, r12
     86a:	0e 94 13 18 	call	0x3026	; 0x3026 <__udivmodsi4>
     86e:	ca 01       	movw	r24, r20
     870:	b9 01       	movw	r22, r18
     872:	24 e6       	ldi	r18, 0x64	; 100
     874:	30 e0       	ldi	r19, 0x00	; 0
     876:	40 e0       	ldi	r20, 0x00	; 0
     878:	50 e0       	ldi	r21, 0x00	; 0
     87a:	0e 94 13 18 	call	0x3026	; 0x3026 <__udivmodsi4>
     87e:	7f 93       	push	r23
     880:	6f 93       	push	r22
     882:	82 e2       	ldi	r24, 0x22	; 34
     884:	91 e0       	ldi	r25, 0x01	; 1
     886:	9f 93       	push	r25
     888:	8f 93       	push	r24
     88a:	cf 93       	push	r28
     88c:	df 93       	push	r29
     88e:	0e 94 99 19 	call	0x3332	; 0x3332 <sprintf>
     892:	8d b7       	in	r24, 0x3d	; 61
     894:	9e b7       	in	r25, 0x3e	; 62
     896:	08 96       	adiw	r24, 0x08	; 8
     898:	0f b6       	in	r0, 0x3f	; 63
     89a:	f8 94       	cli
     89c:	9e bf       	out	0x3e, r25	; 62
     89e:	0f be       	out	0x3f, r0	; 63
     8a0:	8d bf       	out	0x3d, r24	; 61
     8a2:	60 91 cd 01 	lds	r22, 0x01CD
     8a6:	70 91 ce 01 	lds	r23, 0x01CE
     8aa:	40 91 01 02 	lds	r20, 0x0201
     8ae:	8d 2f       	mov	r24, r29
     8b0:	9c 2f       	mov	r25, r28
     8b2:	0e 94 da 02 	call	0x5b4	; 0x5b4 <announce>
     8b6:	8d 2f       	mov	r24, r29
     8b8:	9c 2f       	mov	r25, r28
     8ba:	df 91       	pop	r29
     8bc:	cf 91       	pop	r28
     8be:	ff 90       	pop	r15
     8c0:	ef 90       	pop	r14
     8c2:	df 90       	pop	r13
     8c4:	cf 90       	pop	r12
     8c6:	bf 90       	pop	r11
     8c8:	af 90       	pop	r10
     8ca:	9f 90       	pop	r9
     8cc:	8f 90       	pop	r8
     8ce:	0c 94 dc 18 	jmp	0x31b8	; 0x31b8 <free>

000008d2 <send_dds_word>:
     8d2:	2d 9a       	sbi	0x05, 5	; 5
     8d4:	29 98       	cbi	0x05, 1	; 5
     8d6:	9e bd       	out	0x2e, r25	; 46
     8d8:	0d b4       	in	r0, 0x2d	; 45
     8da:	07 fe       	sbrs	r0, 7
     8dc:	fd cf       	rjmp	.-6      	; 0x8d8 <send_dds_word+0x6>
     8de:	8e bd       	out	0x2e, r24	; 46
     8e0:	0d b4       	in	r0, 0x2d	; 45
     8e2:	07 fe       	sbrs	r0, 7
     8e4:	fd cf       	rjmp	.-6      	; 0x8e0 <send_dds_word+0xe>
     8e6:	29 9a       	sbi	0x05, 1	; 5
     8e8:	08 95       	ret

000008ea <tx_dds>:
     8ea:	81 30       	cpi	r24, 0x01	; 1
     8ec:	19 f4       	brne	.+6      	; 0x8f4 <tx_dds+0xa>
     8ee:	88 e3       	ldi	r24, 0x38	; 56
     8f0:	98 e2       	ldi	r25, 0x28	; 40
     8f2:	02 c0       	rjmp	.+4      	; 0x8f8 <tx_dds+0xe>
     8f4:	88 e1       	ldi	r24, 0x18	; 24
     8f6:	90 e2       	ldi	r25, 0x20	; 32
     8f8:	0c 94 69 04 	jmp	0x8d2	; 0x8d2 <send_dds_word>

000008fc <tune_dds>:
     8fc:	ff 92       	push	r15
     8fe:	0f 93       	push	r16
     900:	1f 93       	push	r17
     902:	cf 93       	push	r28
     904:	df 93       	push	r29
     906:	f2 2e       	mov	r15, r18
     908:	41 30       	cpi	r20, 0x01	; 1
     90a:	19 f4       	brne	.+6      	; 0x912 <__stack+0x13>
     90c:	e0 e0       	ldi	r30, 0x00	; 0
     90e:	f0 e8       	ldi	r31, 0x80	; 128
     910:	02 c0       	rjmp	.+4      	; 0x916 <__stack+0x17>
     912:	e0 e0       	ldi	r30, 0x00	; 0
     914:	f0 e4       	ldi	r31, 0x40	; 64
     916:	8b 01       	movw	r16, r22
     918:	9c 01       	movw	r18, r24
     91a:	1f 73       	andi	r17, 0x3F	; 63
     91c:	22 27       	eor	r18, r18
     91e:	33 27       	eor	r19, r19
     920:	0e 0f       	add	r16, r30
     922:	1f 1f       	adc	r17, r31
     924:	ab 01       	movw	r20, r22
     926:	bc 01       	movw	r22, r24
     928:	ae e0       	ldi	r26, 0x0E	; 14
     92a:	76 95       	lsr	r23
     92c:	67 95       	ror	r22
     92e:	57 95       	ror	r21
     930:	47 95       	ror	r20
     932:	aa 95       	dec	r26
     934:	d1 f7       	brne	.-12     	; 0x92a <__stack+0x2b>
     936:	5f 73       	andi	r21, 0x3F	; 63
     938:	66 27       	eor	r22, r22
     93a:	77 27       	eor	r23, r23
     93c:	ef 01       	movw	r28, r30
     93e:	c4 0f       	add	r28, r20
     940:	d5 1f       	adc	r29, r21
     942:	81 e0       	ldi	r24, 0x01	; 1
     944:	f8 12       	cpse	r15, r24
     946:	04 c0       	rjmp	.+8      	; 0x950 <__stack+0x51>
     948:	88 e1       	ldi	r24, 0x18	; 24
     94a:	91 e2       	ldi	r25, 0x21	; 33
     94c:	0e 94 69 04 	call	0x8d2	; 0x8d2 <send_dds_word>
     950:	c8 01       	movw	r24, r16
     952:	0e 94 69 04 	call	0x8d2	; 0x8d2 <send_dds_word>
     956:	ce 01       	movw	r24, r28
     958:	0e 94 69 04 	call	0x8d2	; 0x8d2 <send_dds_word>
     95c:	81 e0       	ldi	r24, 0x01	; 1
     95e:	f8 12       	cpse	r15, r24
     960:	0d c0       	rjmp	.+26     	; 0x97c <__stack+0x7d>
     962:	80 e0       	ldi	r24, 0x00	; 0
     964:	90 ec       	ldi	r25, 0xC0	; 192
     966:	0e 94 69 04 	call	0x8d2	; 0x8d2 <send_dds_word>
     96a:	88 e1       	ldi	r24, 0x18	; 24
     96c:	90 e2       	ldi	r25, 0x20	; 32
     96e:	df 91       	pop	r29
     970:	cf 91       	pop	r28
     972:	1f 91       	pop	r17
     974:	0f 91       	pop	r16
     976:	ff 90       	pop	r15
     978:	0c 94 69 04 	jmp	0x8d2	; 0x8d2 <send_dds_word>
     97c:	df 91       	pop	r29
     97e:	cf 91       	pop	r28
     980:	1f 91       	pop	r17
     982:	0f 91       	pop	r16
     984:	ff 90       	pop	r15
     986:	08 95       	ret

00000988 <poll_buttons>:
     988:	cf 93       	push	r28
     98a:	80 91 b3 01 	lds	r24, 0x01B3
     98e:	88 30       	cpi	r24, 0x08	; 8
     990:	09 f4       	brne	.+2      	; 0x994 <poll_buttons+0xc>
     992:	41 c2       	rjmp	.+1154   	; 0xe16 <poll_buttons+0x48e>
     994:	90 91 db 01 	lds	r25, 0x01DB
     998:	92 30       	cpi	r25, 0x02	; 2
     99a:	39 f4       	brne	.+14     	; 0x9aa <poll_buttons+0x22>
     99c:	91 e0       	ldi	r25, 0x01	; 1
     99e:	90 93 e1 01 	sts	0x01E1, r25
     9a2:	80 93 cb 01 	sts	0x01CB, r24
     9a6:	83 e0       	ldi	r24, 0x03	; 3
     9a8:	38 c0       	rjmp	.+112    	; 0xa1a <poll_buttons+0x92>
     9aa:	90 91 dc 01 	lds	r25, 0x01DC
     9ae:	91 30       	cpi	r25, 0x01	; 1
     9b0:	41 f4       	brne	.+16     	; 0x9c2 <poll_buttons+0x3a>
     9b2:	80 93 cb 01 	sts	0x01CB, r24
     9b6:	84 e0       	ldi	r24, 0x04	; 4
     9b8:	80 93 b3 01 	sts	0x01B3, r24
     9bc:	90 93 e1 01 	sts	0x01E1, r25
     9c0:	2e c0       	rjmp	.+92     	; 0xa1e <poll_buttons+0x96>
     9c2:	80 91 dc 01 	lds	r24, 0x01DC
     9c6:	82 30       	cpi	r24, 0x02	; 2
     9c8:	29 f4       	brne	.+10     	; 0x9d4 <poll_buttons+0x4c>
     9ca:	48 e2       	ldi	r20, 0x28	; 40
     9cc:	50 e0       	ldi	r21, 0x00	; 0
     9ce:	6d e2       	ldi	r22, 0x2D	; 45
     9d0:	70 e0       	ldi	r23, 0x00	; 0
     9d2:	0f c0       	rjmp	.+30     	; 0x9f2 <poll_buttons+0x6a>
     9d4:	80 91 da 01 	lds	r24, 0x01DA
     9d8:	81 30       	cpi	r24, 0x01	; 1
     9da:	19 f4       	brne	.+6      	; 0x9e2 <poll_buttons+0x5a>
     9dc:	0e 94 83 03 	call	0x706	; 0x706 <count_frequency>
     9e0:	1e c0       	rjmp	.+60     	; 0xa1e <poll_buttons+0x96>
     9e2:	80 91 da 01 	lds	r24, 0x01DA
     9e6:	82 30       	cpi	r24, 0x02	; 2
     9e8:	71 f5       	brne	.+92     	; 0xa46 <poll_buttons+0xbe>
     9ea:	48 e2       	ldi	r20, 0x28	; 40
     9ec:	50 e0       	ldi	r21, 0x00	; 0
     9ee:	64 e0       	ldi	r22, 0x04	; 4
     9f0:	70 e0       	ldi	r23, 0x00	; 0
     9f2:	85 e6       	ldi	r24, 0x65	; 101
     9f4:	91 e0       	ldi	r25, 0x01	; 1
     9f6:	0e 94 9a 1b 	call	0x3734	; 0x3734 <__eerd_block_m328p>
     9fa:	65 e6       	ldi	r22, 0x65	; 101
     9fc:	71 e0       	ldi	r23, 0x01	; 1
     9fe:	80 91 06 02 	lds	r24, 0x0206
     a02:	90 91 07 02 	lds	r25, 0x0207
     a06:	0e 94 78 19 	call	0x32f0	; 0x32f0 <strcpy>
     a0a:	81 e0       	ldi	r24, 0x01	; 1
     a0c:	80 93 e1 01 	sts	0x01E1, r24
     a10:	80 91 b3 01 	lds	r24, 0x01B3
     a14:	80 93 cb 01 	sts	0x01CB, r24
     a18:	86 e0       	ldi	r24, 0x06	; 6
     a1a:	80 93 b3 01 	sts	0x01B3, r24
     a1e:	80 91 9e 01 	lds	r24, 0x019E
     a22:	90 91 9f 01 	lds	r25, 0x019F
     a26:	a0 91 a0 01 	lds	r26, 0x01A0
     a2a:	b0 91 a1 01 	lds	r27, 0x01A1
     a2e:	84 5d       	subi	r24, 0xD4	; 212
     a30:	9e 4f       	sbci	r25, 0xFE	; 254
     a32:	af 4f       	sbci	r26, 0xFF	; 255
     a34:	bf 4f       	sbci	r27, 0xFF	; 255
     a36:	80 93 e8 01 	sts	0x01E8, r24
     a3a:	90 93 e9 01 	sts	0x01E9, r25
     a3e:	a0 93 ea 01 	sts	0x01EA, r26
     a42:	b0 93 eb 01 	sts	0x01EB, r27
     a46:	80 91 ee 01 	lds	r24, 0x01EE
     a4a:	81 30       	cpi	r24, 0x01	; 1
     a4c:	09 f0       	breq	.+2      	; 0xa50 <poll_buttons+0xc8>
     a4e:	82 c0       	rjmp	.+260    	; 0xb54 <poll_buttons+0x1cc>
     a50:	90 91 ed 01 	lds	r25, 0x01ED
     a54:	91 11       	cpse	r25, r1
     a56:	54 c0       	rjmp	.+168    	; 0xb00 <poll_buttons+0x178>
     a58:	90 91 04 01 	lds	r25, 0x0104
     a5c:	91 30       	cpi	r25, 0x01	; 1
     a5e:	41 f5       	brne	.+80     	; 0xab0 <poll_buttons+0x128>
     a60:	10 92 04 01 	sts	0x0104, r1
     a64:	8b e1       	ldi	r24, 0x1B	; 27
     a66:	90 e0       	ldi	r25, 0x00	; 0
     a68:	90 93 03 01 	sts	0x0103, r25
     a6c:	80 93 02 01 	sts	0x0102, r24
     a70:	85 e0       	ldi	r24, 0x05	; 5
     a72:	80 93 01 01 	sts	0x0101, r24
     a76:	80 91 9e 01 	lds	r24, 0x019E
     a7a:	90 91 9f 01 	lds	r25, 0x019F
     a7e:	a0 91 a0 01 	lds	r26, 0x01A0
     a82:	b0 91 a1 01 	lds	r27, 0x01A1
     a86:	84 5d       	subi	r24, 0xD4	; 212
     a88:	9e 4f       	sbci	r25, 0xFE	; 254
     a8a:	af 4f       	sbci	r26, 0xFF	; 255
     a8c:	bf 4f       	sbci	r27, 0xFF	; 255
     a8e:	80 93 e8 01 	sts	0x01E8, r24
     a92:	90 93 e9 01 	sts	0x01E9, r25
     a96:	a0 93 ea 01 	sts	0x01EA, r26
     a9a:	b0 93 eb 01 	sts	0x01EB, r27
     a9e:	81 e0       	ldi	r24, 0x01	; 1
     aa0:	0e 94 59 01 	call	0x2b2	; 0x2b2 <debounce>
     aa4:	49 e1       	ldi	r20, 0x19	; 25
     aa6:	60 e9       	ldi	r22, 0x90	; 144
     aa8:	71 e0       	ldi	r23, 0x01	; 1
     aaa:	8c e2       	ldi	r24, 0x2C	; 44
     aac:	91 e0       	ldi	r25, 0x01	; 1
     aae:	b1 c1       	rjmp	.+866    	; 0xe12 <poll_buttons+0x48a>
     ab0:	80 93 04 01 	sts	0x0104, r24
     ab4:	86 e8       	ldi	r24, 0x86	; 134
     ab6:	90 e0       	ldi	r25, 0x00	; 0
     ab8:	90 93 03 01 	sts	0x0103, r25
     abc:	80 93 02 01 	sts	0x0102, r24
     ac0:	89 e1       	ldi	r24, 0x19	; 25
     ac2:	80 93 01 01 	sts	0x0101, r24
     ac6:	80 91 9e 01 	lds	r24, 0x019E
     aca:	90 91 9f 01 	lds	r25, 0x019F
     ace:	a0 91 a0 01 	lds	r26, 0x01A0
     ad2:	b0 91 a1 01 	lds	r27, 0x01A1
     ad6:	84 5d       	subi	r24, 0xD4	; 212
     ad8:	9e 4f       	sbci	r25, 0xFE	; 254
     ada:	af 4f       	sbci	r26, 0xFF	; 255
     adc:	bf 4f       	sbci	r27, 0xFF	; 255
     ade:	80 93 e8 01 	sts	0x01E8, r24
     ae2:	90 93 e9 01 	sts	0x01E9, r25
     ae6:	a0 93 ea 01 	sts	0x01EA, r26
     aea:	b0 93 eb 01 	sts	0x01EB, r27
     aee:	81 e0       	ldi	r24, 0x01	; 1
     af0:	0e 94 59 01 	call	0x2b2	; 0x2b2 <debounce>
     af4:	49 e1       	ldi	r20, 0x19	; 25
     af6:	64 e8       	ldi	r22, 0x84	; 132
     af8:	73 e0       	ldi	r23, 0x03	; 3
     afa:	8e e2       	ldi	r24, 0x2E	; 46
     afc:	91 e0       	ldi	r25, 0x01	; 1
     afe:	89 c1       	rjmp	.+786    	; 0xe12 <poll_buttons+0x48a>
     b00:	90 91 4c 01 	lds	r25, 0x014C
     b04:	91 11       	cpse	r25, r1
     b06:	14 c0       	rjmp	.+40     	; 0xb30 <poll_buttons+0x1a8>
     b08:	80 93 4c 01 	sts	0x014C, r24
     b0c:	60 91 d6 01 	lds	r22, 0x01D6
     b10:	70 91 d7 01 	lds	r23, 0x01D7
     b14:	80 91 d8 01 	lds	r24, 0x01D8
     b18:	90 91 d9 01 	lds	r25, 0x01D9
     b1c:	20 e0       	ldi	r18, 0x00	; 0
     b1e:	40 e0       	ldi	r20, 0x00	; 0
     b20:	0e 94 7e 04 	call	0x8fc	; 0x8fc <tune_dds>
     b24:	49 e1       	ldi	r20, 0x19	; 25
     b26:	60 e9       	ldi	r22, 0x90	; 144
     b28:	71 e0       	ldi	r23, 0x01	; 1
     b2a:	80 e3       	ldi	r24, 0x30	; 48
     b2c:	91 e0       	ldi	r25, 0x01	; 1
     b2e:	71 c1       	rjmp	.+738    	; 0xe12 <poll_buttons+0x48a>
     b30:	10 92 4c 01 	sts	0x014C, r1
     b34:	60 91 cf 01 	lds	r22, 0x01CF
     b38:	70 91 d0 01 	lds	r23, 0x01D0
     b3c:	80 91 d1 01 	lds	r24, 0x01D1
     b40:	90 91 d2 01 	lds	r25, 0x01D2
     b44:	20 e0       	ldi	r18, 0x00	; 0
     b46:	40 e0       	ldi	r20, 0x00	; 0
     b48:	0e 94 7e 04 	call	0x8fc	; 0x8fc <tune_dds>
     b4c:	49 e1       	ldi	r20, 0x19	; 25
     b4e:	60 e9       	ldi	r22, 0x90	; 144
     b50:	71 e0       	ldi	r23, 0x01	; 1
     b52:	8c c0       	rjmp	.+280    	; 0xc6c <poll_buttons+0x2e4>
     b54:	80 91 ee 01 	lds	r24, 0x01EE
     b58:	82 30       	cpi	r24, 0x02	; 2
     b5a:	09 f0       	breq	.+2      	; 0xb5e <poll_buttons+0x1d6>
     b5c:	5c c1       	rjmp	.+696    	; 0xe16 <poll_buttons+0x48e>
     b5e:	80 91 ed 01 	lds	r24, 0x01ED
     b62:	8f 5f       	subi	r24, 0xFF	; 255
     b64:	80 93 ed 01 	sts	0x01ED, r24
     b68:	80 91 ed 01 	lds	r24, 0x01ED
     b6c:	83 30       	cpi	r24, 0x03	; 3
     b6e:	10 f0       	brcs	.+4      	; 0xb74 <poll_buttons+0x1ec>
     b70:	10 92 ed 01 	sts	0x01ED, r1
     b74:	80 91 ed 01 	lds	r24, 0x01ED
     b78:	81 30       	cpi	r24, 0x01	; 1
     b7a:	21 f0       	breq	.+8      	; 0xb84 <poll_buttons+0x1fc>
     b7c:	82 30       	cpi	r24, 0x02	; 2
     b7e:	09 f0       	breq	.+2      	; 0xb82 <poll_buttons+0x1fa>
     b80:	f0 c0       	rjmp	.+480    	; 0xd62 <poll_buttons+0x3da>
     b82:	77 c0       	rjmp	.+238    	; 0xc72 <poll_buttons+0x2ea>
     b84:	39 9a       	sbi	0x07, 1	; 7
     b86:	10 92 04 01 	sts	0x0104, r1
     b8a:	8b e1       	ldi	r24, 0x1B	; 27
     b8c:	90 e0       	ldi	r25, 0x00	; 0
     b8e:	90 93 03 01 	sts	0x0103, r25
     b92:	80 93 02 01 	sts	0x0102, r24
     b96:	85 e0       	ldi	r24, 0x05	; 5
     b98:	80 93 01 01 	sts	0x0101, r24
     b9c:	80 91 bd 01 	lds	r24, 0x01BD
     ba0:	90 91 be 01 	lds	r25, 0x01BE
     ba4:	a0 91 bf 01 	lds	r26, 0x01BF
     ba8:	b0 91 c0 01 	lds	r27, 0x01C0
     bac:	80 93 cf 01 	sts	0x01CF, r24
     bb0:	90 93 d0 01 	sts	0x01D0, r25
     bb4:	a0 93 d1 01 	sts	0x01D1, r26
     bb8:	b0 93 d2 01 	sts	0x01D2, r27
     bbc:	80 91 bd 01 	lds	r24, 0x01BD
     bc0:	90 91 be 01 	lds	r25, 0x01BE
     bc4:	a0 91 bf 01 	lds	r26, 0x01BF
     bc8:	b0 91 c0 01 	lds	r27, 0x01C0
     bcc:	80 93 d6 01 	sts	0x01D6, r24
     bd0:	90 93 d7 01 	sts	0x01D7, r25
     bd4:	a0 93 d8 01 	sts	0x01D8, r26
     bd8:	b0 93 d9 01 	sts	0x01D9, r27
     bdc:	80 91 dd 01 	lds	r24, 0x01DD
     be0:	90 91 de 01 	lds	r25, 0x01DE
     be4:	a0 91 df 01 	lds	r26, 0x01DF
     be8:	b0 91 e0 01 	lds	r27, 0x01E0
     bec:	80 93 a8 01 	sts	0x01A8, r24
     bf0:	90 93 a9 01 	sts	0x01A9, r25
     bf4:	a0 93 aa 01 	sts	0x01AA, r26
     bf8:	b0 93 ab 01 	sts	0x01AB, r27
     bfc:	60 91 cf 01 	lds	r22, 0x01CF
     c00:	70 91 d0 01 	lds	r23, 0x01D0
     c04:	80 91 d1 01 	lds	r24, 0x01D1
     c08:	90 91 d2 01 	lds	r25, 0x01D2
     c0c:	20 e0       	ldi	r18, 0x00	; 0
     c0e:	40 e0       	ldi	r20, 0x00	; 0
     c10:	0e 94 7e 04 	call	0x8fc	; 0x8fc <tune_dds>
     c14:	60 91 dd 01 	lds	r22, 0x01DD
     c18:	70 91 de 01 	lds	r23, 0x01DE
     c1c:	80 91 df 01 	lds	r24, 0x01DF
     c20:	90 91 e0 01 	lds	r25, 0x01E0
     c24:	20 e0       	ldi	r18, 0x00	; 0
     c26:	41 e0       	ldi	r20, 0x01	; 1
     c28:	0e 94 7e 04 	call	0x8fc	; 0x8fc <tune_dds>
     c2c:	10 92 4c 01 	sts	0x014C, r1
     c30:	10 92 e4 01 	sts	0x01E4, r1
     c34:	10 92 e3 01 	sts	0x01E3, r1
     c38:	81 e0       	ldi	r24, 0x01	; 1
     c3a:	0e 94 59 01 	call	0x2b2	; 0x2b2 <debounce>
     c3e:	80 91 9e 01 	lds	r24, 0x019E
     c42:	90 91 9f 01 	lds	r25, 0x019F
     c46:	a0 91 a0 01 	lds	r26, 0x01A0
     c4a:	b0 91 a1 01 	lds	r27, 0x01A1
     c4e:	84 5d       	subi	r24, 0xD4	; 212
     c50:	9e 4f       	sbci	r25, 0xFE	; 254
     c52:	af 4f       	sbci	r26, 0xFF	; 255
     c54:	bf 4f       	sbci	r27, 0xFF	; 255
     c56:	80 93 e8 01 	sts	0x01E8, r24
     c5a:	90 93 e9 01 	sts	0x01E9, r25
     c5e:	a0 93 ea 01 	sts	0x01EA, r26
     c62:	b0 93 eb 01 	sts	0x01EB, r27
     c66:	49 e1       	ldi	r20, 0x19	; 25
     c68:	64 e8       	ldi	r22, 0x84	; 132
     c6a:	73 e0       	ldi	r23, 0x03	; 3
     c6c:	82 e3       	ldi	r24, 0x32	; 50
     c6e:	91 e0       	ldi	r25, 0x01	; 1
     c70:	d0 c0       	rjmp	.+416    	; 0xe12 <poll_buttons+0x48a>
     c72:	38 9a       	sbi	0x07, 0	; 7
     c74:	c1 e0       	ldi	r28, 0x01	; 1
     c76:	c0 93 04 01 	sts	0x0104, r28
     c7a:	86 e8       	ldi	r24, 0x86	; 134
     c7c:	90 e0       	ldi	r25, 0x00	; 0
     c7e:	90 93 03 01 	sts	0x0103, r25
     c82:	80 93 02 01 	sts	0x0102, r24
     c86:	89 e1       	ldi	r24, 0x19	; 25
     c88:	80 93 01 01 	sts	0x0101, r24
     c8c:	80 91 bd 01 	lds	r24, 0x01BD
     c90:	90 91 be 01 	lds	r25, 0x01BE
     c94:	a0 91 bf 01 	lds	r26, 0x01BF
     c98:	b0 91 c0 01 	lds	r27, 0x01C0
     c9c:	80 93 cf 01 	sts	0x01CF, r24
     ca0:	90 93 d0 01 	sts	0x01D0, r25
     ca4:	a0 93 d1 01 	sts	0x01D1, r26
     ca8:	b0 93 d2 01 	sts	0x01D2, r27
     cac:	80 91 bd 01 	lds	r24, 0x01BD
     cb0:	90 91 be 01 	lds	r25, 0x01BE
     cb4:	a0 91 bf 01 	lds	r26, 0x01BF
     cb8:	b0 91 c0 01 	lds	r27, 0x01C0
     cbc:	80 93 d6 01 	sts	0x01D6, r24
     cc0:	90 93 d7 01 	sts	0x01D7, r25
     cc4:	a0 93 d8 01 	sts	0x01D8, r26
     cc8:	b0 93 d9 01 	sts	0x01D9, r27
     ccc:	80 91 dd 01 	lds	r24, 0x01DD
     cd0:	90 91 de 01 	lds	r25, 0x01DE
     cd4:	a0 91 df 01 	lds	r26, 0x01DF
     cd8:	b0 91 e0 01 	lds	r27, 0x01E0
     cdc:	80 93 a8 01 	sts	0x01A8, r24
     ce0:	90 93 a9 01 	sts	0x01A9, r25
     ce4:	a0 93 aa 01 	sts	0x01AA, r26
     ce8:	b0 93 ab 01 	sts	0x01AB, r27
     cec:	60 91 d6 01 	lds	r22, 0x01D6
     cf0:	70 91 d7 01 	lds	r23, 0x01D7
     cf4:	80 91 d8 01 	lds	r24, 0x01D8
     cf8:	90 91 d9 01 	lds	r25, 0x01D9
     cfc:	20 e0       	ldi	r18, 0x00	; 0
     cfe:	40 e0       	ldi	r20, 0x00	; 0
     d00:	0e 94 7e 04 	call	0x8fc	; 0x8fc <tune_dds>
     d04:	60 91 dd 01 	lds	r22, 0x01DD
     d08:	70 91 de 01 	lds	r23, 0x01DE
     d0c:	80 91 df 01 	lds	r24, 0x01DF
     d10:	90 91 e0 01 	lds	r25, 0x01E0
     d14:	20 e0       	ldi	r18, 0x00	; 0
     d16:	41 e0       	ldi	r20, 0x01	; 1
     d18:	0e 94 7e 04 	call	0x8fc	; 0x8fc <tune_dds>
     d1c:	c0 93 4c 01 	sts	0x014C, r28
     d20:	10 92 e4 01 	sts	0x01E4, r1
     d24:	10 92 e3 01 	sts	0x01E3, r1
     d28:	81 e0       	ldi	r24, 0x01	; 1
     d2a:	0e 94 59 01 	call	0x2b2	; 0x2b2 <debounce>
     d2e:	80 91 9e 01 	lds	r24, 0x019E
     d32:	90 91 9f 01 	lds	r25, 0x019F
     d36:	a0 91 a0 01 	lds	r26, 0x01A0
     d3a:	b0 91 a1 01 	lds	r27, 0x01A1
     d3e:	84 5d       	subi	r24, 0xD4	; 212
     d40:	9e 4f       	sbci	r25, 0xFE	; 254
     d42:	af 4f       	sbci	r26, 0xFF	; 255
     d44:	bf 4f       	sbci	r27, 0xFF	; 255
     d46:	80 93 e8 01 	sts	0x01E8, r24
     d4a:	90 93 e9 01 	sts	0x01E9, r25
     d4e:	a0 93 ea 01 	sts	0x01EA, r26
     d52:	b0 93 eb 01 	sts	0x01EB, r27
     d56:	49 e1       	ldi	r20, 0x19	; 25
     d58:	64 e8       	ldi	r22, 0x84	; 132
     d5a:	73 e0       	ldi	r23, 0x03	; 3
     d5c:	84 e3       	ldi	r24, 0x34	; 52
     d5e:	91 e0       	ldi	r25, 0x01	; 1
     d60:	58 c0       	rjmp	.+176    	; 0xe12 <poll_buttons+0x48a>
     d62:	39 98       	cbi	0x07, 1	; 7
     d64:	41 98       	cbi	0x08, 1	; 8
     d66:	38 98       	cbi	0x07, 0	; 7
     d68:	40 98       	cbi	0x08, 0	; 8
     d6a:	81 e0       	ldi	r24, 0x01	; 1
     d6c:	80 93 04 01 	sts	0x0104, r24
     d70:	86 e8       	ldi	r24, 0x86	; 134
     d72:	90 e0       	ldi	r25, 0x00	; 0
     d74:	90 93 03 01 	sts	0x0103, r25
     d78:	80 93 02 01 	sts	0x0102, r24
     d7c:	89 e1       	ldi	r24, 0x19	; 25
     d7e:	80 93 01 01 	sts	0x0101, r24
     d82:	80 91 a8 01 	lds	r24, 0x01A8
     d86:	90 91 a9 01 	lds	r25, 0x01A9
     d8a:	a0 91 aa 01 	lds	r26, 0x01AA
     d8e:	b0 91 ab 01 	lds	r27, 0x01AB
     d92:	80 93 dd 01 	sts	0x01DD, r24
     d96:	90 93 de 01 	sts	0x01DE, r25
     d9a:	a0 93 df 01 	sts	0x01DF, r26
     d9e:	b0 93 e0 01 	sts	0x01E0, r27
     da2:	60 91 bd 01 	lds	r22, 0x01BD
     da6:	70 91 be 01 	lds	r23, 0x01BE
     daa:	80 91 bf 01 	lds	r24, 0x01BF
     dae:	90 91 c0 01 	lds	r25, 0x01C0
     db2:	20 e0       	ldi	r18, 0x00	; 0
     db4:	40 e0       	ldi	r20, 0x00	; 0
     db6:	0e 94 7e 04 	call	0x8fc	; 0x8fc <tune_dds>
     dba:	60 91 dd 01 	lds	r22, 0x01DD
     dbe:	70 91 de 01 	lds	r23, 0x01DE
     dc2:	80 91 df 01 	lds	r24, 0x01DF
     dc6:	90 91 e0 01 	lds	r25, 0x01E0
     dca:	20 e0       	ldi	r18, 0x00	; 0
     dcc:	41 e0       	ldi	r20, 0x01	; 1
     dce:	0e 94 7e 04 	call	0x8fc	; 0x8fc <tune_dds>
     dd2:	10 92 e4 01 	sts	0x01E4, r1
     dd6:	10 92 e3 01 	sts	0x01E3, r1
     dda:	81 e0       	ldi	r24, 0x01	; 1
     ddc:	0e 94 59 01 	call	0x2b2	; 0x2b2 <debounce>
     de0:	80 91 9e 01 	lds	r24, 0x019E
     de4:	90 91 9f 01 	lds	r25, 0x019F
     de8:	a0 91 a0 01 	lds	r26, 0x01A0
     dec:	b0 91 a1 01 	lds	r27, 0x01A1
     df0:	84 5d       	subi	r24, 0xD4	; 212
     df2:	9e 4f       	sbci	r25, 0xFE	; 254
     df4:	af 4f       	sbci	r26, 0xFF	; 255
     df6:	bf 4f       	sbci	r27, 0xFF	; 255
     df8:	80 93 e8 01 	sts	0x01E8, r24
     dfc:	90 93 e9 01 	sts	0x01E9, r25
     e00:	a0 93 ea 01 	sts	0x01EA, r26
     e04:	b0 93 eb 01 	sts	0x01EB, r27
     e08:	49 e1       	ldi	r20, 0x19	; 25
     e0a:	64 e8       	ldi	r22, 0x84	; 132
     e0c:	73 e0       	ldi	r23, 0x03	; 3
     e0e:	86 e3       	ldi	r24, 0x36	; 54
     e10:	91 e0       	ldi	r25, 0x01	; 1
     e12:	0e 94 da 02 	call	0x5b4	; 0x5b4 <announce>
     e16:	80 91 9d 01 	lds	r24, 0x019D
     e1a:	81 11       	cpse	r24, r1
     e1c:	02 c0       	rjmp	.+4      	; 0xe22 <poll_buttons+0x49a>
     e1e:	c0 e0       	ldi	r28, 0x00	; 0
     e20:	01 c0       	rjmp	.+2      	; 0xe24 <poll_buttons+0x49c>
     e22:	c2 e0       	ldi	r28, 0x02	; 2
     e24:	80 91 0c 02 	lds	r24, 0x020C
     e28:	81 11       	cpse	r24, r1
     e2a:	cf 5f       	subi	r28, 0xFF	; 255
     e2c:	80 91 8e 01 	lds	r24, 0x018E
     e30:	c8 17       	cp	r28, r24
     e32:	09 f4       	brne	.+2      	; 0xe36 <poll_buttons+0x4ae>
     e34:	37 c2       	rjmp	.+1134   	; 0x12a4 <poll_buttons+0x91c>
     e36:	86 95       	lsr	r24
     e38:	81 70       	andi	r24, 0x01	; 1
     e3a:	80 93 8e 01 	sts	0x018E, r24
     e3e:	9c 2f       	mov	r25, r28
     e40:	91 70       	andi	r25, 0x01	; 1
     e42:	98 17       	cp	r25, r24
     e44:	09 f4       	brne	.+2      	; 0xe48 <poll_buttons+0x4c0>
     e46:	fa c0       	rjmp	.+500    	; 0x103c <poll_buttons+0x6b4>
     e48:	80 91 ed 01 	lds	r24, 0x01ED
     e4c:	81 30       	cpi	r24, 0x01	; 1
     e4e:	21 f4       	brne	.+8      	; 0xe58 <poll_buttons+0x4d0>
     e50:	80 91 4c 01 	lds	r24, 0x014C
     e54:	88 23       	and	r24, r24
     e56:	61 f0       	breq	.+24     	; 0xe70 <poll_buttons+0x4e8>
     e58:	80 91 ed 01 	lds	r24, 0x01ED
     e5c:	82 30       	cpi	r24, 0x02	; 2
     e5e:	21 f4       	brne	.+8      	; 0xe68 <poll_buttons+0x4e0>
     e60:	80 91 4c 01 	lds	r24, 0x014C
     e64:	81 30       	cpi	r24, 0x01	; 1
     e66:	21 f0       	breq	.+8      	; 0xe70 <poll_buttons+0x4e8>
     e68:	80 91 ed 01 	lds	r24, 0x01ED
     e6c:	81 11       	cpse	r24, r1
     e6e:	1a c2       	rjmp	.+1076   	; 0x12a4 <poll_buttons+0x91c>
     e70:	80 91 fd 01 	lds	r24, 0x01FD
     e74:	90 91 fe 01 	lds	r25, 0x01FE
     e78:	a0 91 ff 01 	lds	r26, 0x01FF
     e7c:	b0 91 00 02 	lds	r27, 0x0200
     e80:	81 3c       	cpi	r24, 0xC1	; 193
     e82:	9f 4c       	sbci	r25, 0xCF	; 207
     e84:	aa 46       	sbci	r26, 0x6A	; 106
     e86:	b1 05       	cpc	r27, r1
     e88:	08 f4       	brcc	.+2      	; 0xe8c <poll_buttons+0x504>
     e8a:	cf c0       	rjmp	.+414    	; 0x102a <poll_buttons+0x6a2>
     e8c:	80 91 ed 01 	lds	r24, 0x01ED
     e90:	81 30       	cpi	r24, 0x01	; 1
     e92:	09 f5       	brne	.+66     	; 0xed6 <poll_buttons+0x54e>
     e94:	80 91 cf 01 	lds	r24, 0x01CF
     e98:	90 91 d0 01 	lds	r25, 0x01D0
     e9c:	a0 91 d1 01 	lds	r26, 0x01D1
     ea0:	b0 91 d2 01 	lds	r27, 0x01D2
     ea4:	20 91 02 01 	lds	r18, 0x0102
     ea8:	30 91 03 01 	lds	r19, 0x0103
     eac:	82 1b       	sub	r24, r18
     eae:	93 0b       	sbc	r25, r19
     eb0:	a1 09       	sbc	r26, r1
     eb2:	b1 09       	sbc	r27, r1
     eb4:	80 93 cf 01 	sts	0x01CF, r24
     eb8:	90 93 d0 01 	sts	0x01D0, r25
     ebc:	a0 93 d1 01 	sts	0x01D1, r26
     ec0:	b0 93 d2 01 	sts	0x01D2, r27
     ec4:	80 91 e3 01 	lds	r24, 0x01E3
     ec8:	90 91 e4 01 	lds	r25, 0x01E4
     ecc:	20 91 01 01 	lds	r18, 0x0101
     ed0:	82 1b       	sub	r24, r18
     ed2:	91 09       	sbc	r25, r1
     ed4:	f9 c0       	rjmp	.+498    	; 0x10c8 <poll_buttons+0x740>
     ed6:	80 91 ed 01 	lds	r24, 0x01ED
     eda:	82 30       	cpi	r24, 0x02	; 2
     edc:	b9 f5       	brne	.+110    	; 0xf4c <poll_buttons+0x5c4>
     ede:	80 91 dd 01 	lds	r24, 0x01DD
     ee2:	90 91 de 01 	lds	r25, 0x01DE
     ee6:	a0 91 df 01 	lds	r26, 0x01DF
     eea:	b0 91 e0 01 	lds	r27, 0x01E0
     eee:	40 91 02 01 	lds	r20, 0x0102
     ef2:	50 91 03 01 	lds	r21, 0x0103
     ef6:	60 e0       	ldi	r22, 0x00	; 0
     ef8:	70 e0       	ldi	r23, 0x00	; 0
     efa:	84 1b       	sub	r24, r20
     efc:	95 0b       	sbc	r25, r21
     efe:	a6 0b       	sbc	r26, r22
     f00:	b7 0b       	sbc	r27, r23
     f02:	80 93 dd 01 	sts	0x01DD, r24
     f06:	90 93 de 01 	sts	0x01DE, r25
     f0a:	a0 93 df 01 	sts	0x01DF, r26
     f0e:	b0 93 e0 01 	sts	0x01E0, r27
     f12:	80 91 d6 01 	lds	r24, 0x01D6
     f16:	90 91 d7 01 	lds	r25, 0x01D7
     f1a:	a0 91 d8 01 	lds	r26, 0x01D8
     f1e:	b0 91 d9 01 	lds	r27, 0x01D9
     f22:	84 1b       	sub	r24, r20
     f24:	95 0b       	sbc	r25, r21
     f26:	a6 0b       	sbc	r26, r22
     f28:	b7 0b       	sbc	r27, r23
     f2a:	80 93 d6 01 	sts	0x01D6, r24
     f2e:	90 93 d7 01 	sts	0x01D7, r25
     f32:	a0 93 d8 01 	sts	0x01D8, r26
     f36:	b0 93 d9 01 	sts	0x01D9, r27
     f3a:	80 91 e3 01 	lds	r24, 0x01E3
     f3e:	90 91 e4 01 	lds	r25, 0x01E4
     f42:	20 91 01 01 	lds	r18, 0x0101
     f46:	82 1b       	sub	r24, r18
     f48:	91 09       	sbc	r25, r1
     f4a:	06 c1       	rjmp	.+524    	; 0x1158 <poll_buttons+0x7d0>
     f4c:	80 91 b3 01 	lds	r24, 0x01B3
     f50:	88 30       	cpi	r24, 0x08	; 8
     f52:	71 f5       	brne	.+92     	; 0xfb0 <poll_buttons+0x628>
     f54:	80 91 bd 01 	lds	r24, 0x01BD
     f58:	90 91 be 01 	lds	r25, 0x01BE
     f5c:	a0 91 bf 01 	lds	r26, 0x01BF
     f60:	b0 91 c0 01 	lds	r27, 0x01C0
     f64:	4b 97       	sbiw	r24, 0x1b	; 27
     f66:	a1 09       	sbc	r26, r1
     f68:	b1 09       	sbc	r27, r1
     f6a:	80 93 bd 01 	sts	0x01BD, r24
     f6e:	90 93 be 01 	sts	0x01BE, r25
     f72:	a0 93 bf 01 	sts	0x01BF, r26
     f76:	b0 93 c0 01 	sts	0x01C0, r27
     f7a:	60 91 bd 01 	lds	r22, 0x01BD
     f7e:	70 91 be 01 	lds	r23, 0x01BE
     f82:	80 91 bf 01 	lds	r24, 0x01BF
     f86:	90 91 c0 01 	lds	r25, 0x01C0
     f8a:	20 e0       	ldi	r18, 0x00	; 0
     f8c:	40 e0       	ldi	r20, 0x00	; 0
     f8e:	0e 94 7e 04 	call	0x8fc	; 0x8fc <tune_dds>
     f92:	40 91 bd 01 	lds	r20, 0x01BD
     f96:	50 91 be 01 	lds	r21, 0x01BE
     f9a:	60 91 bf 01 	lds	r22, 0x01BF
     f9e:	70 91 c0 01 	lds	r23, 0x01C0
     fa2:	80 e0       	ldi	r24, 0x00	; 0
     fa4:	90 e0       	ldi	r25, 0x00	; 0
     fa6:	0e 94 d0 1b 	call	0x37a0	; 0x37a0 <__eewr_dword_m328p>
     faa:	f9 99       	sbic	0x1f, 1	; 31
     fac:	fe cf       	rjmp	.-4      	; 0xfaa <poll_buttons+0x622>
     fae:	63 c1       	rjmp	.+710    	; 0x1276 <poll_buttons+0x8ee>
     fb0:	80 91 dd 01 	lds	r24, 0x01DD
     fb4:	90 91 de 01 	lds	r25, 0x01DE
     fb8:	a0 91 df 01 	lds	r26, 0x01DF
     fbc:	b0 91 e0 01 	lds	r27, 0x01E0
     fc0:	40 91 02 01 	lds	r20, 0x0102
     fc4:	50 91 03 01 	lds	r21, 0x0103
     fc8:	60 e0       	ldi	r22, 0x00	; 0
     fca:	70 e0       	ldi	r23, 0x00	; 0
     fcc:	84 1b       	sub	r24, r20
     fce:	95 0b       	sbc	r25, r21
     fd0:	a6 0b       	sbc	r26, r22
     fd2:	b7 0b       	sbc	r27, r23
     fd4:	80 93 dd 01 	sts	0x01DD, r24
     fd8:	90 93 de 01 	sts	0x01DE, r25
     fdc:	a0 93 df 01 	sts	0x01DF, r26
     fe0:	b0 93 e0 01 	sts	0x01E0, r27
     fe4:	80 91 bd 01 	lds	r24, 0x01BD
     fe8:	90 91 be 01 	lds	r25, 0x01BE
     fec:	a0 91 bf 01 	lds	r26, 0x01BF
     ff0:	b0 91 c0 01 	lds	r27, 0x01C0
     ff4:	84 1b       	sub	r24, r20
     ff6:	95 0b       	sbc	r25, r21
     ff8:	a6 0b       	sbc	r26, r22
     ffa:	b7 0b       	sbc	r27, r23
     ffc:	80 93 bd 01 	sts	0x01BD, r24
    1000:	90 93 be 01 	sts	0x01BE, r25
    1004:	a0 93 bf 01 	sts	0x01BF, r26
    1008:	b0 93 c0 01 	sts	0x01C0, r27
    100c:	80 91 fd 01 	lds	r24, 0x01FD
    1010:	90 91 fe 01 	lds	r25, 0x01FE
    1014:	a0 91 ff 01 	lds	r26, 0x01FF
    1018:	b0 91 00 02 	lds	r27, 0x0200
    101c:	20 91 01 01 	lds	r18, 0x0101
    1020:	82 1b       	sub	r24, r18
    1022:	91 09       	sbc	r25, r1
    1024:	a1 09       	sbc	r26, r1
    1026:	b1 09       	sbc	r27, r1
    1028:	12 c1       	rjmp	.+548    	; 0x124e <poll_buttons+0x8c6>
    102a:	81 e0       	ldi	r24, 0x01	; 1
    102c:	0e 94 59 01 	call	0x2b2	; 0x2b2 <debounce>
    1030:	49 e1       	ldi	r20, 0x19	; 25
    1032:	64 e8       	ldi	r22, 0x84	; 132
    1034:	73 e0       	ldi	r23, 0x03	; 3
    1036:	8c e3       	ldi	r24, 0x3C	; 60
    1038:	91 e0       	ldi	r25, 0x01	; 1
    103a:	32 c1       	rjmp	.+612    	; 0x12a0 <poll_buttons+0x918>
    103c:	80 91 ed 01 	lds	r24, 0x01ED
    1040:	81 30       	cpi	r24, 0x01	; 1
    1042:	21 f4       	brne	.+8      	; 0x104c <poll_buttons+0x6c4>
    1044:	80 91 4c 01 	lds	r24, 0x014C
    1048:	88 23       	and	r24, r24
    104a:	61 f0       	breq	.+24     	; 0x1064 <poll_buttons+0x6dc>
    104c:	80 91 ed 01 	lds	r24, 0x01ED
    1050:	82 30       	cpi	r24, 0x02	; 2
    1052:	21 f4       	brne	.+8      	; 0x105c <poll_buttons+0x6d4>
    1054:	80 91 4c 01 	lds	r24, 0x014C
    1058:	81 30       	cpi	r24, 0x01	; 1
    105a:	21 f0       	breq	.+8      	; 0x1064 <poll_buttons+0x6dc>
    105c:	80 91 ed 01 	lds	r24, 0x01ED
    1060:	81 11       	cpse	r24, r1
    1062:	20 c1       	rjmp	.+576    	; 0x12a4 <poll_buttons+0x91c>
    1064:	80 91 fd 01 	lds	r24, 0x01FD
    1068:	90 91 fe 01 	lds	r25, 0x01FE
    106c:	a0 91 ff 01 	lds	r26, 0x01FF
    1070:	b0 91 00 02 	lds	r27, 0x0200
    1074:	80 3a       	cpi	r24, 0xA0	; 160
    1076:	93 46       	sbci	r25, 0x63	; 99
    1078:	af 46       	sbci	r26, 0x6F	; 111
    107a:	b1 05       	cpc	r27, r1
    107c:	08 f0       	brcs	.+2      	; 0x1080 <poll_buttons+0x6f8>
    107e:	08 c1       	rjmp	.+528    	; 0x1290 <poll_buttons+0x908>
    1080:	80 91 ed 01 	lds	r24, 0x01ED
    1084:	81 30       	cpi	r24, 0x01	; 1
    1086:	69 f5       	brne	.+90     	; 0x10e2 <poll_buttons+0x75a>
    1088:	80 91 cf 01 	lds	r24, 0x01CF
    108c:	90 91 d0 01 	lds	r25, 0x01D0
    1090:	a0 91 d1 01 	lds	r26, 0x01D1
    1094:	b0 91 d2 01 	lds	r27, 0x01D2
    1098:	20 91 02 01 	lds	r18, 0x0102
    109c:	30 91 03 01 	lds	r19, 0x0103
    10a0:	82 0f       	add	r24, r18
    10a2:	93 1f       	adc	r25, r19
    10a4:	a1 1d       	adc	r26, r1
    10a6:	b1 1d       	adc	r27, r1
    10a8:	80 93 cf 01 	sts	0x01CF, r24
    10ac:	90 93 d0 01 	sts	0x01D0, r25
    10b0:	a0 93 d1 01 	sts	0x01D1, r26
    10b4:	b0 93 d2 01 	sts	0x01D2, r27
    10b8:	80 91 e3 01 	lds	r24, 0x01E3
    10bc:	90 91 e4 01 	lds	r25, 0x01E4
    10c0:	20 91 01 01 	lds	r18, 0x0101
    10c4:	82 0f       	add	r24, r18
    10c6:	91 1d       	adc	r25, r1
    10c8:	90 93 e4 01 	sts	0x01E4, r25
    10cc:	80 93 e3 01 	sts	0x01E3, r24
    10d0:	60 91 cf 01 	lds	r22, 0x01CF
    10d4:	70 91 d0 01 	lds	r23, 0x01D0
    10d8:	80 91 d1 01 	lds	r24, 0x01D1
    10dc:	90 91 d2 01 	lds	r25, 0x01D2
    10e0:	c6 c0       	rjmp	.+396    	; 0x126e <poll_buttons+0x8e6>
    10e2:	80 91 ed 01 	lds	r24, 0x01ED
    10e6:	82 30       	cpi	r24, 0x02	; 2
    10e8:	09 f0       	breq	.+2      	; 0x10ec <poll_buttons+0x764>
    10ea:	43 c0       	rjmp	.+134    	; 0x1172 <poll_buttons+0x7ea>
    10ec:	80 91 dd 01 	lds	r24, 0x01DD
    10f0:	90 91 de 01 	lds	r25, 0x01DE
    10f4:	a0 91 df 01 	lds	r26, 0x01DF
    10f8:	b0 91 e0 01 	lds	r27, 0x01E0
    10fc:	40 91 02 01 	lds	r20, 0x0102
    1100:	50 91 03 01 	lds	r21, 0x0103
    1104:	60 e0       	ldi	r22, 0x00	; 0
    1106:	70 e0       	ldi	r23, 0x00	; 0
    1108:	84 0f       	add	r24, r20
    110a:	95 1f       	adc	r25, r21
    110c:	a6 1f       	adc	r26, r22
    110e:	b7 1f       	adc	r27, r23
    1110:	80 93 dd 01 	sts	0x01DD, r24
    1114:	90 93 de 01 	sts	0x01DE, r25
    1118:	a0 93 df 01 	sts	0x01DF, r26
    111c:	b0 93 e0 01 	sts	0x01E0, r27
    1120:	80 91 d6 01 	lds	r24, 0x01D6
    1124:	90 91 d7 01 	lds	r25, 0x01D7
    1128:	a0 91 d8 01 	lds	r26, 0x01D8
    112c:	b0 91 d9 01 	lds	r27, 0x01D9
    1130:	84 0f       	add	r24, r20
    1132:	95 1f       	adc	r25, r21
    1134:	a6 1f       	adc	r26, r22
    1136:	b7 1f       	adc	r27, r23
    1138:	80 93 d6 01 	sts	0x01D6, r24
    113c:	90 93 d7 01 	sts	0x01D7, r25
    1140:	a0 93 d8 01 	sts	0x01D8, r26
    1144:	b0 93 d9 01 	sts	0x01D9, r27
    1148:	80 91 e3 01 	lds	r24, 0x01E3
    114c:	90 91 e4 01 	lds	r25, 0x01E4
    1150:	20 91 01 01 	lds	r18, 0x0101
    1154:	82 0f       	add	r24, r18
    1156:	91 1d       	adc	r25, r1
    1158:	90 93 e4 01 	sts	0x01E4, r25
    115c:	80 93 e3 01 	sts	0x01E3, r24
    1160:	60 91 d6 01 	lds	r22, 0x01D6
    1164:	70 91 d7 01 	lds	r23, 0x01D7
    1168:	80 91 d8 01 	lds	r24, 0x01D8
    116c:	90 91 d9 01 	lds	r25, 0x01D9
    1170:	7e c0       	rjmp	.+252    	; 0x126e <poll_buttons+0x8e6>
    1172:	80 91 b3 01 	lds	r24, 0x01B3
    1176:	88 30       	cpi	r24, 0x08	; 8
    1178:	71 f5       	brne	.+92     	; 0x11d6 <poll_buttons+0x84e>
    117a:	80 91 bd 01 	lds	r24, 0x01BD
    117e:	90 91 be 01 	lds	r25, 0x01BE
    1182:	a0 91 bf 01 	lds	r26, 0x01BF
    1186:	b0 91 c0 01 	lds	r27, 0x01C0
    118a:	4b 96       	adiw	r24, 0x1b	; 27
    118c:	a1 1d       	adc	r26, r1
    118e:	b1 1d       	adc	r27, r1
    1190:	80 93 bd 01 	sts	0x01BD, r24
    1194:	90 93 be 01 	sts	0x01BE, r25
    1198:	a0 93 bf 01 	sts	0x01BF, r26
    119c:	b0 93 c0 01 	sts	0x01C0, r27
    11a0:	60 91 bd 01 	lds	r22, 0x01BD
    11a4:	70 91 be 01 	lds	r23, 0x01BE
    11a8:	80 91 bf 01 	lds	r24, 0x01BF
    11ac:	90 91 c0 01 	lds	r25, 0x01C0
    11b0:	20 e0       	ldi	r18, 0x00	; 0
    11b2:	40 e0       	ldi	r20, 0x00	; 0
    11b4:	0e 94 7e 04 	call	0x8fc	; 0x8fc <tune_dds>
    11b8:	40 91 bd 01 	lds	r20, 0x01BD
    11bc:	50 91 be 01 	lds	r21, 0x01BE
    11c0:	60 91 bf 01 	lds	r22, 0x01BF
    11c4:	70 91 c0 01 	lds	r23, 0x01C0
    11c8:	80 e0       	ldi	r24, 0x00	; 0
    11ca:	90 e0       	ldi	r25, 0x00	; 0
    11cc:	0e 94 d0 1b 	call	0x37a0	; 0x37a0 <__eewr_dword_m328p>
    11d0:	f9 99       	sbic	0x1f, 1	; 31
    11d2:	fe cf       	rjmp	.-4      	; 0x11d0 <poll_buttons+0x848>
    11d4:	50 c0       	rjmp	.+160    	; 0x1276 <poll_buttons+0x8ee>
    11d6:	80 91 dd 01 	lds	r24, 0x01DD
    11da:	90 91 de 01 	lds	r25, 0x01DE
    11de:	a0 91 df 01 	lds	r26, 0x01DF
    11e2:	b0 91 e0 01 	lds	r27, 0x01E0
    11e6:	40 91 02 01 	lds	r20, 0x0102
    11ea:	50 91 03 01 	lds	r21, 0x0103
    11ee:	60 e0       	ldi	r22, 0x00	; 0
    11f0:	70 e0       	ldi	r23, 0x00	; 0
    11f2:	84 0f       	add	r24, r20
    11f4:	95 1f       	adc	r25, r21
    11f6:	a6 1f       	adc	r26, r22
    11f8:	b7 1f       	adc	r27, r23
    11fa:	80 93 dd 01 	sts	0x01DD, r24
    11fe:	90 93 de 01 	sts	0x01DE, r25
    1202:	a0 93 df 01 	sts	0x01DF, r26
    1206:	b0 93 e0 01 	sts	0x01E0, r27
    120a:	80 91 bd 01 	lds	r24, 0x01BD
    120e:	90 91 be 01 	lds	r25, 0x01BE
    1212:	a0 91 bf 01 	lds	r26, 0x01BF
    1216:	b0 91 c0 01 	lds	r27, 0x01C0
    121a:	84 0f       	add	r24, r20
    121c:	95 1f       	adc	r25, r21
    121e:	a6 1f       	adc	r26, r22
    1220:	b7 1f       	adc	r27, r23
    1222:	80 93 bd 01 	sts	0x01BD, r24
    1226:	90 93 be 01 	sts	0x01BE, r25
    122a:	a0 93 bf 01 	sts	0x01BF, r26
    122e:	b0 93 c0 01 	sts	0x01C0, r27
    1232:	80 91 fd 01 	lds	r24, 0x01FD
    1236:	90 91 fe 01 	lds	r25, 0x01FE
    123a:	a0 91 ff 01 	lds	r26, 0x01FF
    123e:	b0 91 00 02 	lds	r27, 0x0200
    1242:	20 91 01 01 	lds	r18, 0x0101
    1246:	82 0f       	add	r24, r18
    1248:	91 1d       	adc	r25, r1
    124a:	a1 1d       	adc	r26, r1
    124c:	b1 1d       	adc	r27, r1
    124e:	80 93 fd 01 	sts	0x01FD, r24
    1252:	90 93 fe 01 	sts	0x01FE, r25
    1256:	a0 93 ff 01 	sts	0x01FF, r26
    125a:	b0 93 00 02 	sts	0x0200, r27
    125e:	60 91 bd 01 	lds	r22, 0x01BD
    1262:	70 91 be 01 	lds	r23, 0x01BE
    1266:	80 91 bf 01 	lds	r24, 0x01BF
    126a:	90 91 c0 01 	lds	r25, 0x01C0
    126e:	20 e0       	ldi	r18, 0x00	; 0
    1270:	40 e0       	ldi	r20, 0x00	; 0
    1272:	0e 94 7e 04 	call	0x8fc	; 0x8fc <tune_dds>
    1276:	60 91 dd 01 	lds	r22, 0x01DD
    127a:	70 91 de 01 	lds	r23, 0x01DE
    127e:	80 91 df 01 	lds	r24, 0x01DF
    1282:	90 91 e0 01 	lds	r25, 0x01E0
    1286:	20 e0       	ldi	r18, 0x00	; 0
    1288:	41 e0       	ldi	r20, 0x01	; 1
    128a:	0e 94 7e 04 	call	0x8fc	; 0x8fc <tune_dds>
    128e:	0a c0       	rjmp	.+20     	; 0x12a4 <poll_buttons+0x91c>
    1290:	81 e0       	ldi	r24, 0x01	; 1
    1292:	0e 94 59 01 	call	0x2b2	; 0x2b2 <debounce>
    1296:	49 e1       	ldi	r20, 0x19	; 25
    1298:	64 e8       	ldi	r22, 0x84	; 132
    129a:	73 e0       	ldi	r23, 0x03	; 3
    129c:	88 e3       	ldi	r24, 0x38	; 56
    129e:	91 e0       	ldi	r25, 0x01	; 1
    12a0:	0e 94 da 02 	call	0x5b4	; 0x5b4 <announce>
    12a4:	c0 93 8e 01 	sts	0x018E, r28
    12a8:	cf 91       	pop	r28
    12aa:	08 95       	ret

000012ac <__vector_7>:
    12ac:	1f 92       	push	r1
    12ae:	0f 92       	push	r0
    12b0:	0f b6       	in	r0, 0x3f	; 63
    12b2:	0f 92       	push	r0
    12b4:	11 24       	eor	r1, r1
    12b6:	2f 93       	push	r18
    12b8:	3f 93       	push	r19
    12ba:	4f 93       	push	r20
    12bc:	5f 93       	push	r21
    12be:	6f 93       	push	r22
    12c0:	7f 93       	push	r23
    12c2:	8f 93       	push	r24
    12c4:	9f 93       	push	r25
    12c6:	af 93       	push	r26
    12c8:	bf 93       	push	r27
    12ca:	ef 93       	push	r30
    12cc:	ff 93       	push	r31
    12ce:	40 91 a4 01 	lds	r20, 0x01A4
    12d2:	50 91 a5 01 	lds	r21, 0x01A5
    12d6:	60 91 a6 01 	lds	r22, 0x01A6
    12da:	70 91 a7 01 	lds	r23, 0x01A7
    12de:	80 91 02 02 	lds	r24, 0x0202
    12e2:	90 91 03 02 	lds	r25, 0x0203
    12e6:	a0 91 04 02 	lds	r26, 0x0204
    12ea:	b0 91 05 02 	lds	r27, 0x0205
    12ee:	84 17       	cp	r24, r20
    12f0:	95 07       	cpc	r25, r21
    12f2:	a6 07       	cpc	r26, r22
    12f4:	b7 07       	cpc	r27, r23
    12f6:	a8 f4       	brcc	.+42     	; 0x1322 <__vector_7+0x76>
    12f8:	40 91 a4 01 	lds	r20, 0x01A4
    12fc:	50 91 a5 01 	lds	r21, 0x01A5
    1300:	60 91 a6 01 	lds	r22, 0x01A6
    1304:	70 91 a7 01 	lds	r23, 0x01A7
    1308:	80 91 f3 01 	lds	r24, 0x01F3
    130c:	90 91 f4 01 	lds	r25, 0x01F4
    1310:	a0 91 f5 01 	lds	r26, 0x01F5
    1314:	b0 91 f6 01 	lds	r27, 0x01F6
    1318:	48 17       	cp	r20, r24
    131a:	59 07       	cpc	r21, r25
    131c:	6a 07       	cpc	r22, r26
    131e:	7b 07       	cpc	r23, r27
    1320:	20 f0       	brcs	.+8      	; 0x132a <__vector_7+0x7e>
    1322:	80 91 4a 01 	lds	r24, 0x014A
    1326:	81 30       	cpi	r24, 0x01	; 1
    1328:	11 f4       	brne	.+4      	; 0x132e <__vector_7+0x82>
    132a:	2e 9a       	sbi	0x05, 6	; 5
    132c:	01 c0       	rjmp	.+2      	; 0x1330 <__vector_7+0x84>
    132e:	2e 98       	cbi	0x05, 6	; 5
    1330:	40 91 a4 01 	lds	r20, 0x01A4
    1334:	50 91 a5 01 	lds	r21, 0x01A5
    1338:	60 91 a6 01 	lds	r22, 0x01A6
    133c:	70 91 a7 01 	lds	r23, 0x01A7
    1340:	80 91 08 02 	lds	r24, 0x0208
    1344:	90 91 09 02 	lds	r25, 0x0209
    1348:	a0 91 0a 02 	lds	r26, 0x020A
    134c:	b0 91 0b 02 	lds	r27, 0x020B
    1350:	48 17       	cp	r20, r24
    1352:	59 07       	cpc	r21, r25
    1354:	6a 07       	cpc	r22, r26
    1356:	7b 07       	cpc	r23, r27
    1358:	f8 f4       	brcc	.+62     	; 0x1398 <__vector_7+0xec>
    135a:	40 91 a4 01 	lds	r20, 0x01A4
    135e:	50 91 a5 01 	lds	r21, 0x01A5
    1362:	60 91 a6 01 	lds	r22, 0x01A6
    1366:	70 91 a7 01 	lds	r23, 0x01A7
    136a:	80 91 b9 01 	lds	r24, 0x01B9
    136e:	90 91 ba 01 	lds	r25, 0x01BA
    1372:	a0 91 bb 01 	lds	r26, 0x01BB
    1376:	b0 91 bc 01 	lds	r27, 0x01BC
    137a:	84 17       	cp	r24, r20
    137c:	95 07       	cpc	r25, r21
    137e:	a6 07       	cpc	r26, r22
    1380:	b7 07       	cpc	r27, r23
    1382:	50 f4       	brcc	.+20     	; 0x1398 <__vector_7+0xec>
    1384:	88 e1       	ldi	r24, 0x18	; 24
    1386:	98 e2       	ldi	r25, 0x28	; 40
    1388:	0e 94 69 04 	call	0x8d2	; 0x8d2 <send_dds_word>
    138c:	80 91 49 01 	lds	r24, 0x0149
    1390:	81 30       	cpi	r24, 0x01	; 1
    1392:	31 f4       	brne	.+12     	; 0x13a0 <__vector_7+0xf4>
    1394:	2f 9a       	sbi	0x05, 7	; 5
    1396:	05 c0       	rjmp	.+10     	; 0x13a2 <__vector_7+0xf6>
    1398:	88 e1       	ldi	r24, 0x18	; 24
    139a:	90 e2       	ldi	r25, 0x20	; 32
    139c:	0e 94 69 04 	call	0x8d2	; 0x8d2 <send_dds_word>
    13a0:	2f 98       	cbi	0x05, 7	; 5
    13a2:	80 91 ed 01 	lds	r24, 0x01ED
    13a6:	88 23       	and	r24, r24
    13a8:	69 f0       	breq	.+26     	; 0x13c4 <__vector_7+0x118>
    13aa:	80 91 ed 01 	lds	r24, 0x01ED
    13ae:	81 30       	cpi	r24, 0x01	; 1
    13b0:	19 f4       	brne	.+6      	; 0x13b8 <__vector_7+0x10c>
    13b2:	41 9a       	sbi	0x08, 1	; 8
    13b4:	40 98       	cbi	0x08, 0	; 8
    13b6:	06 c0       	rjmp	.+12     	; 0x13c4 <__vector_7+0x118>
    13b8:	80 91 ed 01 	lds	r24, 0x01ED
    13bc:	82 30       	cpi	r24, 0x02	; 2
    13be:	11 f4       	brne	.+4      	; 0x13c4 <__vector_7+0x118>
    13c0:	40 9a       	sbi	0x08, 0	; 8
    13c2:	41 98       	cbi	0x08, 1	; 8
    13c4:	80 e0       	ldi	r24, 0x00	; 0
    13c6:	0e 94 59 01 	call	0x2b2	; 0x2b2 <debounce>
    13ca:	80 91 a4 01 	lds	r24, 0x01A4
    13ce:	90 91 a5 01 	lds	r25, 0x01A5
    13d2:	a0 91 a6 01 	lds	r26, 0x01A6
    13d6:	b0 91 a7 01 	lds	r27, 0x01A7
    13da:	01 96       	adiw	r24, 0x01	; 1
    13dc:	a1 1d       	adc	r26, r1
    13de:	b1 1d       	adc	r27, r1
    13e0:	80 93 a4 01 	sts	0x01A4, r24
    13e4:	90 93 a5 01 	sts	0x01A5, r25
    13e8:	a0 93 a6 01 	sts	0x01A6, r26
    13ec:	b0 93 a7 01 	sts	0x01A7, r27
    13f0:	ff 91       	pop	r31
    13f2:	ef 91       	pop	r30
    13f4:	bf 91       	pop	r27
    13f6:	af 91       	pop	r26
    13f8:	9f 91       	pop	r25
    13fa:	8f 91       	pop	r24
    13fc:	7f 91       	pop	r23
    13fe:	6f 91       	pop	r22
    1400:	5f 91       	pop	r21
    1402:	4f 91       	pop	r20
    1404:	3f 91       	pop	r19
    1406:	2f 91       	pop	r18
    1408:	0f 90       	pop	r0
    140a:	0f be       	out	0x3f, r0	; 63
    140c:	0f 90       	pop	r0
    140e:	1f 90       	pop	r1
    1410:	18 95       	reti

00001412 <set_dds_freq_reg>:
    1412:	81 30       	cpi	r24, 0x01	; 1
    1414:	19 f4       	brne	.+6      	; 0x141c <set_dds_freq_reg+0xa>
    1416:	88 e1       	ldi	r24, 0x18	; 24
    1418:	98 e2       	ldi	r25, 0x28	; 40
    141a:	02 c0       	rjmp	.+4      	; 0x1420 <set_dds_freq_reg+0xe>
    141c:	88 e1       	ldi	r24, 0x18	; 24
    141e:	90 e2       	ldi	r25, 0x20	; 32
    1420:	0c 94 69 04 	jmp	0x8d2	; 0x8d2 <send_dds_word>

00001424 <set_st_freq>:
    1424:	9b 01       	movw	r18, r22
    1426:	ac 01       	movw	r20, r24
    1428:	69 eb       	ldi	r22, 0xB9	; 185
    142a:	7d e8       	ldi	r23, 0x8D	; 141
    142c:	86 e0       	ldi	r24, 0x06	; 6
    142e:	90 e0       	ldi	r25, 0x00	; 0
    1430:	0e 94 db 17 	call	0x2fb6	; 0x2fb6 <__mulsi3>
    1434:	60 93 c3 01 	sts	0x01C3, r22
    1438:	70 93 c4 01 	sts	0x01C4, r23
    143c:	80 93 c5 01 	sts	0x01C5, r24
    1440:	90 93 c6 01 	sts	0x01C6, r25
    1444:	08 95       	ret

00001446 <i2c_init>:
    1446:	10 92 b9 00 	sts	0x00B9, r1
    144a:	8a e0       	ldi	r24, 0x0A	; 10
    144c:	80 93 b8 00 	sts	0x00B8, r24
    1450:	84 e0       	ldi	r24, 0x04	; 4
    1452:	80 93 bc 00 	sts	0x00BC, r24
    1456:	08 95       	ret

00001458 <init>:
    1458:	cf 93       	push	r28
    145a:	f8 94       	cli
    145c:	81 e8       	ldi	r24, 0x81	; 129
    145e:	84 bd       	out	0x24, r24	; 36
    1460:	c1 e0       	ldi	r28, 0x01	; 1
    1462:	c5 bd       	out	0x25, r28	; 37
    1464:	8a e0       	ldi	r24, 0x0A	; 10
    1466:	80 93 81 00 	sts	0x0081, r24
    146a:	10 92 80 00 	sts	0x0080, r1
    146e:	83 e6       	ldi	r24, 0x63	; 99
    1470:	90 e0       	ldi	r25, 0x00	; 0
    1472:	90 93 89 00 	sts	0x0089, r25
    1476:	80 93 88 00 	sts	0x0088, r24
    147a:	82 e0       	ldi	r24, 0x02	; 2
    147c:	80 93 6f 00 	sts	0x006F, r24
    1480:	80 93 b0 00 	sts	0x00B0, r24
    1484:	83 e0       	ldi	r24, 0x03	; 3
    1486:	80 93 b1 00 	sts	0x00B1, r24
    148a:	80 91 70 00 	lds	r24, 0x0070
    148e:	82 60       	ori	r24, 0x02	; 2
    1490:	80 93 70 00 	sts	0x0070, r24
    1494:	89 ef       	ldi	r24, 0xF9	; 249
    1496:	80 93 b3 00 	sts	0x00B3, r24
    149a:	56 9a       	sbi	0x0a, 6	; 10
    149c:	26 9a       	sbi	0x04, 6	; 4
    149e:	27 9a       	sbi	0x04, 7	; 4
    14a0:	39 98       	cbi	0x07, 1	; 7
    14a2:	41 98       	cbi	0x08, 1	; 8
    14a4:	38 98       	cbi	0x07, 0	; 7
    14a6:	40 98       	cbi	0x08, 0	; 8
    14a8:	3c 9a       	sbi	0x07, 4	; 7
    14aa:	44 9a       	sbi	0x08, 4	; 8
    14ac:	3d 9a       	sbi	0x07, 5	; 7
    14ae:	45 9a       	sbi	0x08, 5	; 8
    14b0:	53 98       	cbi	0x0a, 3	; 10
    14b2:	5b 9a       	sbi	0x0b, 3	; 11
    14b4:	54 98       	cbi	0x0a, 4	; 10
    14b6:	5c 9a       	sbi	0x0b, 4	; 11
    14b8:	52 98       	cbi	0x0a, 2	; 10
    14ba:	5a 9a       	sbi	0x0b, 2	; 11
    14bc:	55 98       	cbi	0x0a, 5	; 10
    14be:	5d 9a       	sbi	0x0b, 5	; 11
    14c0:	20 98       	cbi	0x04, 0	; 4
    14c2:	28 9a       	sbi	0x05, 0	; 5
    14c4:	57 98       	cbi	0x0a, 7	; 10
    14c6:	5f 9a       	sbi	0x0b, 7	; 11
    14c8:	3b 98       	cbi	0x07, 3	; 7
    14ca:	43 9a       	sbi	0x08, 3	; 8
    14cc:	84 b1       	in	r24, 0x04	; 4
    14ce:	8e 62       	ori	r24, 0x2E	; 46
    14d0:	84 b9       	out	0x04, r24	; 4
    14d2:	89 e5       	ldi	r24, 0x59	; 89
    14d4:	8c bd       	out	0x2c, r24	; 44
    14d6:	8d b5       	in	r24, 0x2d	; 45
    14d8:	8e b5       	in	r24, 0x2e	; 46
    14da:	c0 93 ac 01 	sts	0x01AC, r28
    14de:	c0 93 e1 01 	sts	0x01E1, r28
    14e2:	c0 93 b8 01 	sts	0x01B8, r28
    14e6:	10 92 a4 01 	sts	0x01A4, r1
    14ea:	10 92 a5 01 	sts	0x01A5, r1
    14ee:	10 92 a6 01 	sts	0x01A6, r1
    14f2:	10 92 a7 01 	sts	0x01A7, r1
    14f6:	80 e0       	ldi	r24, 0x00	; 0
    14f8:	90 e0       	ldi	r25, 0x00	; 0
    14fa:	0e 94 b2 1b 	call	0x3764	; 0x3764 <__eerd_dword_m328p>
    14fe:	60 93 bd 01 	sts	0x01BD, r22
    1502:	70 93 be 01 	sts	0x01BE, r23
    1506:	80 93 bf 01 	sts	0x01BF, r24
    150a:	90 93 c0 01 	sts	0x01C0, r25
    150e:	89 ec       	ldi	r24, 0xC9	; 201
    1510:	95 ee       	ldi	r25, 0xE5	; 229
    1512:	af e3       	ldi	r26, 0x3F	; 63
    1514:	b2 e0       	ldi	r27, 0x02	; 2
    1516:	80 93 dd 01 	sts	0x01DD, r24
    151a:	90 93 de 01 	sts	0x01DE, r25
    151e:	a0 93 df 01 	sts	0x01DF, r26
    1522:	b0 93 e0 01 	sts	0x01E0, r27
    1526:	80 ef       	ldi	r24, 0xF0	; 240
    1528:	94 e4       	ldi	r25, 0x44	; 68
    152a:	ab e6       	ldi	r26, 0x6B	; 107
    152c:	b0 e0       	ldi	r27, 0x00	; 0
    152e:	80 93 fd 01 	sts	0x01FD, r24
    1532:	90 93 fe 01 	sts	0x01FE, r25
    1536:	a0 93 ff 01 	sts	0x01FF, r26
    153a:	b0 93 00 02 	sts	0x0200, r27
    153e:	60 91 bd 01 	lds	r22, 0x01BD
    1542:	70 91 be 01 	lds	r23, 0x01BE
    1546:	80 91 bf 01 	lds	r24, 0x01BF
    154a:	90 91 c0 01 	lds	r25, 0x01C0
    154e:	21 e0       	ldi	r18, 0x01	; 1
    1550:	40 e0       	ldi	r20, 0x00	; 0
    1552:	0e 94 7e 04 	call	0x8fc	; 0x8fc <tune_dds>
    1556:	60 91 bd 01 	lds	r22, 0x01BD
    155a:	70 91 be 01 	lds	r23, 0x01BE
    155e:	80 91 bf 01 	lds	r24, 0x01BF
    1562:	90 91 c0 01 	lds	r25, 0x01C0
    1566:	20 e0       	ldi	r18, 0x00	; 0
    1568:	40 e0       	ldi	r20, 0x00	; 0
    156a:	0e 94 7e 04 	call	0x8fc	; 0x8fc <tune_dds>
    156e:	60 91 dd 01 	lds	r22, 0x01DD
    1572:	70 91 de 01 	lds	r23, 0x01DE
    1576:	80 91 df 01 	lds	r24, 0x01DF
    157a:	90 91 e0 01 	lds	r25, 0x01E0
    157e:	20 e0       	ldi	r18, 0x00	; 0
    1580:	41 e0       	ldi	r20, 0x01	; 1
    1582:	0e 94 7e 04 	call	0x8fc	; 0x8fc <tune_dds>
    1586:	88 e5       	ldi	r24, 0x58	; 88
    1588:	92 e0       	ldi	r25, 0x02	; 2
    158a:	90 93 ce 01 	sts	0x01CE, r25
    158e:	80 93 cd 01 	sts	0x01CD, r24
    1592:	88 e9       	ldi	r24, 0x98	; 152
    1594:	99 e2       	ldi	r25, 0x29	; 41
    1596:	ac e5       	ldi	r26, 0x5C	; 92
    1598:	bf e0       	ldi	r27, 0x0F	; 15
    159a:	80 93 c3 01 	sts	0x01C3, r24
    159e:	90 93 c4 01 	sts	0x01C4, r25
    15a2:	a0 93 c5 01 	sts	0x01C5, r26
    15a6:	b0 93 c6 01 	sts	0x01C6, r27
    15aa:	10 92 ed 01 	sts	0x01ED, r1
    15ae:	10 92 ec 01 	sts	0x01EC, r1
    15b2:	2e 9a       	sbi	0x05, 6	; 5
    15b4:	87 e5       	ldi	r24, 0x57	; 87
    15b6:	90 e0       	ldi	r25, 0x00	; 0
    15b8:	0e 94 aa 1b 	call	0x3754	; 0x3754 <__eerd_byte_m328p>
    15bc:	80 93 01 02 	sts	0x0201, r24
    15c0:	68 2f       	mov	r22, r24
    15c2:	80 eb       	ldi	r24, 0xB0	; 176
    15c4:	94 e0       	ldi	r25, 0x04	; 4
    15c6:	70 e0       	ldi	r23, 0x00	; 0
    15c8:	0e 94 ff 17 	call	0x2ffe	; 0x2ffe <__divmodhi4>
    15cc:	70 93 ae 01 	sts	0x01AE, r23
    15d0:	60 93 ad 01 	sts	0x01AD, r22
    15d4:	86 e5       	ldi	r24, 0x56	; 86
    15d6:	90 e0       	ldi	r25, 0x00	; 0
    15d8:	0e 94 aa 1b 	call	0x3754	; 0x3754 <__eerd_byte_m328p>
    15dc:	81 11       	cpse	r24, r1
    15de:	03 c0       	rjmp	.+6      	; 0x15e6 <init+0x18e>
    15e0:	c0 93 b3 01 	sts	0x01B3, r28
    15e4:	02 c0       	rjmp	.+4      	; 0x15ea <init+0x192>
    15e6:	10 92 b3 01 	sts	0x01B3, r1
    15ea:	80 91 d5 01 	lds	r24, 0x01D5
    15ee:	81 30       	cpi	r24, 0x01	; 1
    15f0:	31 f4       	brne	.+12     	; 0x15fe <init+0x1a6>
    15f2:	90 91 f7 01 	lds	r25, 0x01F7
    15f6:	91 11       	cpse	r25, r1
    15f8:	02 c0       	rjmp	.+4      	; 0x15fe <init+0x1a6>
    15fa:	80 93 b3 01 	sts	0x01B3, r24
    15fe:	33 99       	sbic	0x06, 3	; 6
    1600:	06 c0       	rjmp	.+12     	; 0x160e <init+0x1b6>
    1602:	88 e0       	ldi	r24, 0x08	; 8
    1604:	80 93 b3 01 	sts	0x01B3, r24
    1608:	81 e0       	ldi	r24, 0x01	; 1
    160a:	80 93 e1 01 	sts	0x01E1, r24
    160e:	2f 98       	cbi	0x05, 7	; 5
    1610:	0e 94 23 0a 	call	0x1446	; 0x1446 <i2c_init>
    1614:	8c e2       	ldi	r24, 0x2C	; 44
    1616:	91 e0       	ldi	r25, 0x01	; 1
    1618:	ef ec       	ldi	r30, 0xCF	; 207
    161a:	f7 e0       	ldi	r31, 0x07	; 7
    161c:	31 97       	sbiw	r30, 0x01	; 1
    161e:	f1 f7       	brne	.-4      	; 0x161c <init+0x1c4>
    1620:	00 c0       	rjmp	.+0      	; 0x1622 <init+0x1ca>
    1622:	00 00       	nop
    1624:	01 97       	sbiw	r24, 0x01	; 1
    1626:	c1 f7       	brne	.-16     	; 0x1618 <init+0x1c0>
    1628:	2e 98       	cbi	0x05, 6	; 5
    162a:	78 94       	sei
    162c:	cf 91       	pop	r28
    162e:	08 95       	ret

00001630 <i2c_start>:
    1630:	84 ea       	ldi	r24, 0xA4	; 164
    1632:	80 93 bc 00 	sts	0x00BC, r24
    1636:	80 91 bc 00 	lds	r24, 0x00BC
    163a:	87 ff       	sbrs	r24, 7
    163c:	fc cf       	rjmp	.-8      	; 0x1636 <i2c_start+0x6>
    163e:	08 95       	ret

00001640 <i2c_stop>:
    1640:	84 e9       	ldi	r24, 0x94	; 148
    1642:	80 93 bc 00 	sts	0x00BC, r24
    1646:	08 95       	ret

00001648 <i2c_write>:
    1648:	80 93 bb 00 	sts	0x00BB, r24
    164c:	84 e8       	ldi	r24, 0x84	; 132
    164e:	80 93 bc 00 	sts	0x00BC, r24
    1652:	80 91 bc 00 	lds	r24, 0x00BC
    1656:	87 ff       	sbrs	r24, 7
    1658:	fc cf       	rjmp	.-8      	; 0x1652 <i2c_write+0xa>
    165a:	08 95       	ret

0000165c <i2c_read_ack>:
    165c:	84 ec       	ldi	r24, 0xC4	; 196
    165e:	80 93 bc 00 	sts	0x00BC, r24
    1662:	80 91 bc 00 	lds	r24, 0x00BC
    1666:	87 ff       	sbrs	r24, 7
    1668:	fc cf       	rjmp	.-8      	; 0x1662 <i2c_read_ack+0x6>
    166a:	80 91 bb 00 	lds	r24, 0x00BB
    166e:	08 95       	ret

00001670 <i2c_read_nack>:
    1670:	84 e8       	ldi	r24, 0x84	; 132
    1672:	80 93 bc 00 	sts	0x00BC, r24
    1676:	80 91 bc 00 	lds	r24, 0x00BC
    167a:	87 ff       	sbrs	r24, 7
    167c:	fc cf       	rjmp	.-8      	; 0x1676 <i2c_read_nack+0x6>
    167e:	80 91 bb 00 	lds	r24, 0x00BB
    1682:	08 95       	ret

00001684 <i2c_status>:
    1684:	80 91 b9 00 	lds	r24, 0x00B9
    1688:	88 7f       	andi	r24, 0xF8	; 248
    168a:	08 95       	ret

0000168c <main>:
    168c:	cf 93       	push	r28
    168e:	df 93       	push	r29
    1690:	1f 92       	push	r1
    1692:	cd b7       	in	r28, 0x3d	; 61
    1694:	de b7       	in	r29, 0x3e	; 62
    1696:	89 e2       	ldi	r24, 0x29	; 41
    1698:	90 e0       	ldi	r25, 0x00	; 0
    169a:	0e 94 41 18 	call	0x3082	; 0x3082 <malloc>
    169e:	80 93 06 02 	sts	0x0206, r24
    16a2:	90 93 07 02 	sts	0x0207, r25
    16a6:	19 e2       	ldi	r17, 0x29	; 41
    16a8:	dc 01       	movw	r26, r24
    16aa:	21 2f       	mov	r18, r17
    16ac:	1d 92       	st	X+, r1
    16ae:	2a 95       	dec	r18
    16b0:	e9 f7       	brne	.-6      	; 0x16ac <main+0x20>
    16b2:	80 93 8f 01 	sts	0x018F, r24
    16b6:	90 93 90 01 	sts	0x0190, r25
    16ba:	89 e2       	ldi	r24, 0x29	; 41
    16bc:	90 e0       	ldi	r25, 0x00	; 0
    16be:	0e 94 41 18 	call	0x3082	; 0x3082 <malloc>
    16c2:	80 93 d3 01 	sts	0x01D3, r24
    16c6:	90 93 d4 01 	sts	0x01D4, r25
    16ca:	dc 01       	movw	r26, r24
    16cc:	1d 92       	st	X+, r1
    16ce:	1a 95       	dec	r17
    16d0:	e9 f7       	brne	.-6      	; 0x16cc <main+0x40>
    16d2:	0e 94 2c 0a 	call	0x1458	; 0x1458 <init>
    16d6:	80 91 b3 01 	lds	r24, 0x01B3
    16da:	60 91 cd 01 	lds	r22, 0x01CD
    16de:	70 91 ce 01 	lds	r23, 0x01CE
    16e2:	44 e1       	ldi	r20, 0x14	; 20
    16e4:	88 30       	cpi	r24, 0x08	; 8
    16e6:	19 f4       	brne	.+6      	; 0x16ee <main+0x62>
    16e8:	8a e3       	ldi	r24, 0x3A	; 58
    16ea:	91 e0       	ldi	r25, 0x01	; 1
    16ec:	02 c0       	rjmp	.+4      	; 0x16f2 <main+0x66>
    16ee:	8e e3       	ldi	r24, 0x3E	; 62
    16f0:	91 e0       	ldi	r25, 0x01	; 1
    16f2:	0e 94 da 02 	call	0x5b4	; 0x5b4 <announce>
    16f6:	b5 e0       	ldi	r27, 0x05	; 5
    16f8:	bb 2e       	mov	r11, r27
    16fa:	14 e1       	ldi	r17, 0x14	; 20
    16fc:	61 2e       	mov	r6, r17
    16fe:	11 e0       	ldi	r17, 0x01	; 1
    1700:	71 2e       	mov	r7, r17
    1702:	07 e0       	ldi	r16, 0x07	; 7
    1704:	a0 2e       	mov	r10, r16
    1706:	04 e0       	ldi	r16, 0x04	; 4
    1708:	cc 24       	eor	r12, r12
    170a:	ca 94       	dec	r12
    170c:	dc 2c       	mov	r13, r12
    170e:	76 01       	movw	r14, r12
    1710:	13 e0       	ldi	r17, 0x03	; 3
    1712:	80 eb       	ldi	r24, 0xB0	; 176
    1714:	88 2e       	mov	r8, r24
    1716:	84 e0       	ldi	r24, 0x04	; 4
    1718:	98 2e       	mov	r9, r24
    171a:	f8 94       	cli
    171c:	80 91 a4 01 	lds	r24, 0x01A4
    1720:	90 91 a5 01 	lds	r25, 0x01A5
    1724:	a0 91 a6 01 	lds	r26, 0x01A6
    1728:	b0 91 a7 01 	lds	r27, 0x01A7
    172c:	80 93 9e 01 	sts	0x019E, r24
    1730:	90 93 9f 01 	sts	0x019F, r25
    1734:	a0 93 a0 01 	sts	0x01A0, r26
    1738:	b0 93 a1 01 	sts	0x01A1, r27
    173c:	78 94       	sei
    173e:	20 91 b3 01 	lds	r18, 0x01B3
    1742:	24 30       	cpi	r18, 0x04	; 4
    1744:	09 f4       	brne	.+2      	; 0x1748 <main+0xbc>
    1746:	64 c5       	rjmp	.+2760   	; 0x2210 <main+0xb84>
    1748:	50 f4       	brcc	.+20     	; 0x175e <main+0xd2>
    174a:	21 30       	cpi	r18, 0x01	; 1
    174c:	a9 f0       	breq	.+42     	; 0x1778 <main+0xec>
    174e:	08 f4       	brcc	.+2      	; 0x1752 <main+0xc6>
    1750:	f9 c0       	rjmp	.+498    	; 0x1944 <main+0x2b8>
    1752:	22 30       	cpi	r18, 0x02	; 2
    1754:	09 f4       	brne	.+2      	; 0x1758 <main+0xcc>
    1756:	a4 c3       	rjmp	.+1864   	; 0x1ea0 <main+0x814>
    1758:	23 30       	cpi	r18, 0x03	; 3
    175a:	f9 f6       	brne	.-66     	; 0x171a <main+0x8e>
    175c:	ad c4       	rjmp	.+2394   	; 0x20b8 <main+0xa2c>
    175e:	26 30       	cpi	r18, 0x06	; 6
    1760:	09 f4       	brne	.+2      	; 0x1764 <main+0xd8>
    1762:	1c c7       	rjmp	.+3640   	; 0x259c <main+0xf10>
    1764:	08 f4       	brcc	.+2      	; 0x1768 <main+0xdc>
    1766:	98 c6       	rjmp	.+3376   	; 0x2498 <main+0xe0c>
    1768:	27 30       	cpi	r18, 0x07	; 7
    176a:	11 f4       	brne	.+4      	; 0x1770 <main+0xe4>
    176c:	0c 94 8d 14 	jmp	0x291a	; 0x291a <main+0x128e>
    1770:	28 30       	cpi	r18, 0x08	; 8
    1772:	99 f6       	brne	.-90     	; 0x171a <main+0x8e>
    1774:	0c 94 a1 17 	jmp	0x2f42	; 0x2f42 <main+0x18b6>
    1778:	20 93 a3 01 	sts	0x01A3, r18
    177c:	29 83       	std	Y+1, r18	; 0x01
    177e:	0e 94 c4 04 	call	0x988	; 0x988 <poll_buttons>
    1782:	80 91 e1 01 	lds	r24, 0x01E1
    1786:	29 81       	ldd	r18, Y+1	; 0x01
    1788:	87 30       	cpi	r24, 0x07	; 7
    178a:	b9 f1       	breq	.+110    	; 0x17fa <main+0x16e>
    178c:	8c 30       	cpi	r24, 0x0C	; 12
    178e:	09 f4       	brne	.+2      	; 0x1792 <main+0x106>
    1790:	9c c0       	rjmp	.+312    	; 0x18ca <main+0x23e>
    1792:	81 30       	cpi	r24, 0x01	; 1
    1794:	09 f0       	breq	.+2      	; 0x1798 <main+0x10c>
    1796:	c1 cf       	rjmp	.-126    	; 0x171a <main+0x8e>
    1798:	10 92 49 01 	sts	0x0149, r1
    179c:	10 92 4b 01 	sts	0x014B, r1
    17a0:	10 92 4a 01 	sts	0x014A, r1
    17a4:	90 91 f7 01 	lds	r25, 0x01F7
    17a8:	91 30       	cpi	r25, 0x01	; 1
    17aa:	11 f0       	breq	.+4      	; 0x17b0 <main+0x124>
    17ac:	0c 94 cc 17 	jmp	0x2f98	; 0x2f98 <main+0x190c>
    17b0:	40 91 9e 01 	lds	r20, 0x019E
    17b4:	50 91 9f 01 	lds	r21, 0x019F
    17b8:	60 91 a0 01 	lds	r22, 0x01A0
    17bc:	70 91 a1 01 	lds	r23, 0x01A1
    17c0:	4e 5f       	subi	r20, 0xFE	; 254
    17c2:	5f 4f       	sbci	r21, 0xFF	; 255
    17c4:	6f 4f       	sbci	r22, 0xFF	; 255
    17c6:	7f 4f       	sbci	r23, 0xFF	; 255
    17c8:	40 93 b9 01 	sts	0x01B9, r20
    17cc:	50 93 ba 01 	sts	0x01BA, r21
    17d0:	60 93 bb 01 	sts	0x01BB, r22
    17d4:	70 93 bc 01 	sts	0x01BC, r23
    17d8:	c0 92 08 02 	sts	0x0208, r12
    17dc:	d0 92 09 02 	sts	0x0209, r13
    17e0:	e0 92 0a 02 	sts	0x020A, r14
    17e4:	f0 92 0b 02 	sts	0x020B, r15
    17e8:	c0 92 ef 01 	sts	0x01EF, r12
    17ec:	d0 92 f0 01 	sts	0x01F0, r13
    17f0:	e0 92 f1 01 	sts	0x01F1, r14
    17f4:	f0 92 f2 01 	sts	0x01F2, r15
    17f8:	a6 c4       	rjmp	.+2380   	; 0x2146 <main+0xaba>
    17fa:	80 91 fd 01 	lds	r24, 0x01FD
    17fe:	90 91 fe 01 	lds	r25, 0x01FE
    1802:	a0 91 ff 01 	lds	r26, 0x01FF
    1806:	b0 91 00 02 	lds	r27, 0x0200
    180a:	81 3a       	cpi	r24, 0xA1	; 161
    180c:	93 46       	sbci	r25, 0x63	; 99
    180e:	af 46       	sbci	r26, 0x6F	; 111
    1810:	b1 05       	cpc	r27, r1
    1812:	68 f4       	brcc	.+26     	; 0x182e <main+0x1a2>
    1814:	80 91 fd 01 	lds	r24, 0x01FD
    1818:	90 91 fe 01 	lds	r25, 0x01FE
    181c:	a0 91 ff 01 	lds	r26, 0x01FF
    1820:	b0 91 00 02 	lds	r27, 0x0200
    1824:	80 3c       	cpi	r24, 0xC0	; 192
    1826:	9f 4c       	sbci	r25, 0xCF	; 207
    1828:	aa 46       	sbci	r26, 0x6A	; 106
    182a:	b1 05       	cpc	r27, r1
    182c:	38 f4       	brcc	.+14     	; 0x183c <main+0x1b0>
    182e:	10 92 49 01 	sts	0x0149, r1
    1832:	10 92 4b 01 	sts	0x014B, r1
    1836:	10 92 4a 01 	sts	0x014A, r1
    183a:	06 c0       	rjmp	.+12     	; 0x1848 <main+0x1bc>
    183c:	20 93 49 01 	sts	0x0149, r18
    1840:	20 93 4b 01 	sts	0x014B, r18
    1844:	20 93 4a 01 	sts	0x014A, r18
    1848:	80 91 f7 01 	lds	r24, 0x01F7
    184c:	81 11       	cpse	r24, r1
    184e:	34 c0       	rjmp	.+104    	; 0x18b8 <main+0x22c>
    1850:	8c e0       	ldi	r24, 0x0C	; 12
    1852:	80 93 e1 01 	sts	0x01E1, r24
    1856:	80 91 9e 01 	lds	r24, 0x019E
    185a:	90 91 9f 01 	lds	r25, 0x019F
    185e:	a0 91 a0 01 	lds	r26, 0x01A0
    1862:	b0 91 a1 01 	lds	r27, 0x01A1
    1866:	80 93 ef 01 	sts	0x01EF, r24
    186a:	90 93 f0 01 	sts	0x01F0, r25
    186e:	a0 93 f1 01 	sts	0x01F1, r26
    1872:	b0 93 f2 01 	sts	0x01F2, r27
    1876:	40 91 9e 01 	lds	r20, 0x019E
    187a:	50 91 9f 01 	lds	r21, 0x019F
    187e:	60 91 a0 01 	lds	r22, 0x01A0
    1882:	70 91 a1 01 	lds	r23, 0x01A1
    1886:	48 53       	subi	r20, 0x38	; 56
    1888:	5f 4f       	sbci	r21, 0xFF	; 255
    188a:	6f 4f       	sbci	r22, 0xFF	; 255
    188c:	7f 4f       	sbci	r23, 0xFF	; 255
    188e:	40 93 f3 01 	sts	0x01F3, r20
    1892:	50 93 f4 01 	sts	0x01F4, r21
    1896:	60 93 f5 01 	sts	0x01F5, r22
    189a:	70 93 f6 01 	sts	0x01F6, r23
    189e:	40 91 9e 01 	lds	r20, 0x019E
    18a2:	50 91 9f 01 	lds	r21, 0x019F
    18a6:	60 91 a0 01 	lds	r22, 0x01A0
    18aa:	70 91 a1 01 	lds	r23, 0x01A1
    18ae:	4e 5f       	subi	r20, 0xFE	; 254
    18b0:	5f 4f       	sbci	r21, 0xFF	; 255
    18b2:	6f 4f       	sbci	r22, 0xFF	; 255
    18b4:	7f 4f       	sbci	r23, 0xFF	; 255
    18b6:	81 c4       	rjmp	.+2306   	; 0x21ba <main+0xb2e>
    18b8:	c0 92 08 02 	sts	0x0208, r12
    18bc:	d0 92 09 02 	sts	0x0209, r13
    18c0:	e0 92 0a 02 	sts	0x020A, r14
    18c4:	f0 92 0b 02 	sts	0x020B, r15
    18c8:	28 cf       	rjmp	.-432    	; 0x171a <main+0x8e>
    18ca:	10 92 49 01 	sts	0x0149, r1
    18ce:	10 92 4b 01 	sts	0x014B, r1
    18d2:	80 91 fd 01 	lds	r24, 0x01FD
    18d6:	90 91 fe 01 	lds	r25, 0x01FE
    18da:	a0 91 ff 01 	lds	r26, 0x01FF
    18de:	b0 91 00 02 	lds	r27, 0x0200
    18e2:	81 3a       	cpi	r24, 0xA1	; 161
    18e4:	93 46       	sbci	r25, 0x63	; 99
    18e6:	af 46       	sbci	r26, 0x6F	; 111
    18e8:	b1 05       	cpc	r27, r1
    18ea:	68 f4       	brcc	.+26     	; 0x1906 <main+0x27a>
    18ec:	80 91 fd 01 	lds	r24, 0x01FD
    18f0:	90 91 fe 01 	lds	r25, 0x01FE
    18f4:	a0 91 ff 01 	lds	r26, 0x01FF
    18f8:	b0 91 00 02 	lds	r27, 0x0200
    18fc:	80 3c       	cpi	r24, 0xC0	; 192
    18fe:	9f 4c       	sbci	r25, 0xCF	; 207
    1900:	aa 46       	sbci	r26, 0x6A	; 106
    1902:	b1 05       	cpc	r27, r1
    1904:	18 f4       	brcc	.+6      	; 0x190c <main+0x280>
    1906:	10 92 4a 01 	sts	0x014A, r1
    190a:	02 c0       	rjmp	.+4      	; 0x1910 <main+0x284>
    190c:	20 93 4a 01 	sts	0x014A, r18
    1910:	40 91 9e 01 	lds	r20, 0x019E
    1914:	50 91 9f 01 	lds	r21, 0x019F
    1918:	60 91 a0 01 	lds	r22, 0x01A0
    191c:	70 91 a1 01 	lds	r23, 0x01A1
    1920:	80 91 ef 01 	lds	r24, 0x01EF
    1924:	90 91 f0 01 	lds	r25, 0x01F0
    1928:	a0 91 f1 01 	lds	r26, 0x01F1
    192c:	b0 91 f2 01 	lds	r27, 0x01F2
    1930:	48 17       	cp	r20, r24
    1932:	59 07       	cpc	r21, r25
    1934:	6a 07       	cpc	r22, r26
    1936:	7b 07       	cpc	r23, r27
    1938:	08 f4       	brcc	.+2      	; 0x193c <main+0x2b0>
    193a:	ef ce       	rjmp	.-546    	; 0x171a <main+0x8e>
    193c:	f1 e0       	ldi	r31, 0x01	; 1
    193e:	f0 93 e1 01 	sts	0x01E1, r31
    1942:	eb ce       	rjmp	.-554    	; 0x171a <main+0x8e>
    1944:	10 92 a3 01 	sts	0x01A3, r1
    1948:	0e 94 c4 04 	call	0x988	; 0x988 <poll_buttons>
    194c:	80 91 e1 01 	lds	r24, 0x01E1
    1950:	83 30       	cpi	r24, 0x03	; 3
    1952:	09 f4       	brne	.+2      	; 0x1956 <main+0x2ca>
    1954:	2a c1       	rjmp	.+596    	; 0x1baa <main+0x51e>
    1956:	30 f4       	brcc	.+12     	; 0x1964 <main+0x2d8>
    1958:	81 30       	cpi	r24, 0x01	; 1
    195a:	59 f0       	breq	.+22     	; 0x1972 <main+0x2e6>
    195c:	82 30       	cpi	r24, 0x02	; 2
    195e:	09 f0       	breq	.+2      	; 0x1962 <main+0x2d6>
    1960:	dc ce       	rjmp	.-584    	; 0x171a <main+0x8e>
    1962:	bc c0       	rjmp	.+376    	; 0x1adc <main+0x450>
    1964:	84 30       	cpi	r24, 0x04	; 4
    1966:	09 f4       	brne	.+2      	; 0x196a <main+0x2de>
    1968:	87 c1       	rjmp	.+782    	; 0x1c78 <main+0x5ec>
    196a:	8c 30       	cpi	r24, 0x0C	; 12
    196c:	09 f0       	breq	.+2      	; 0x1970 <main+0x2e4>
    196e:	d5 ce       	rjmp	.-598    	; 0x171a <main+0x8e>
    1970:	64 c2       	rjmp	.+1224   	; 0x1e3a <main+0x7ae>
    1972:	10 92 49 01 	sts	0x0149, r1
    1976:	10 92 4b 01 	sts	0x014B, r1
    197a:	10 92 4a 01 	sts	0x014A, r1
    197e:	80 91 9e 01 	lds	r24, 0x019E
    1982:	90 91 9f 01 	lds	r25, 0x019F
    1986:	a0 91 a0 01 	lds	r26, 0x01A0
    198a:	b0 91 a1 01 	lds	r27, 0x01A1
    198e:	80 93 f3 01 	sts	0x01F3, r24
    1992:	90 93 f4 01 	sts	0x01F4, r25
    1996:	a0 93 f5 01 	sts	0x01F5, r26
    199a:	b0 93 f6 01 	sts	0x01F6, r27
    199e:	80 91 f7 01 	lds	r24, 0x01F7
    19a2:	81 30       	cpi	r24, 0x01	; 1
    19a4:	61 f4       	brne	.+24     	; 0x19be <main+0x332>
    19a6:	90 91 d5 01 	lds	r25, 0x01D5
    19aa:	91 11       	cpse	r25, r1
    19ac:	08 c0       	rjmp	.+16     	; 0x19be <main+0x332>
    19ae:	80 93 ac 01 	sts	0x01AC, r24
    19b2:	22 e0       	ldi	r18, 0x02	; 2
    19b4:	20 93 e1 01 	sts	0x01E1, r18
    19b8:	80 93 b8 01 	sts	0x01B8, r24
    19bc:	82 c0       	rjmp	.+260    	; 0x1ac2 <main+0x436>
    19be:	80 91 d5 01 	lds	r24, 0x01D5
    19c2:	81 30       	cpi	r24, 0x01	; 1
    19c4:	09 f0       	breq	.+2      	; 0x19c8 <main+0x33c>
    19c6:	64 c0       	rjmp	.+200    	; 0x1a90 <main+0x404>
    19c8:	90 91 f7 01 	lds	r25, 0x01F7
    19cc:	91 11       	cpse	r25, r1
    19ce:	60 c0       	rjmp	.+192    	; 0x1a90 <main+0x404>
    19d0:	80 93 ac 01 	sts	0x01AC, r24
    19d4:	10 93 e1 01 	sts	0x01E1, r17
    19d8:	80 93 b8 01 	sts	0x01B8, r24
    19dc:	40 91 9e 01 	lds	r20, 0x019E
    19e0:	50 91 9f 01 	lds	r21, 0x019F
    19e4:	60 91 a0 01 	lds	r22, 0x01A0
    19e8:	70 91 a1 01 	lds	r23, 0x01A1
    19ec:	20 91 ad 01 	lds	r18, 0x01AD
    19f0:	30 91 ae 01 	lds	r19, 0x01AE
    19f4:	c9 01       	movw	r24, r18
    19f6:	88 0f       	add	r24, r24
    19f8:	99 1f       	adc	r25, r25
    19fa:	82 0f       	add	r24, r18
    19fc:	93 1f       	adc	r25, r19
    19fe:	48 0f       	add	r20, r24
    1a00:	59 1f       	adc	r21, r25
    1a02:	61 1d       	adc	r22, r1
    1a04:	71 1d       	adc	r23, r1
    1a06:	40 93 ef 01 	sts	0x01EF, r20
    1a0a:	50 93 f0 01 	sts	0x01F0, r21
    1a0e:	60 93 f1 01 	sts	0x01F1, r22
    1a12:	70 93 f2 01 	sts	0x01F2, r23
    1a16:	80 91 9e 01 	lds	r24, 0x019E
    1a1a:	90 91 9f 01 	lds	r25, 0x019F
    1a1e:	a0 91 a0 01 	lds	r26, 0x01A0
    1a22:	b0 91 a1 01 	lds	r27, 0x01A1
    1a26:	02 96       	adiw	r24, 0x02	; 2
    1a28:	a1 1d       	adc	r26, r1
    1a2a:	b1 1d       	adc	r27, r1
    1a2c:	80 93 b9 01 	sts	0x01B9, r24
    1a30:	90 93 ba 01 	sts	0x01BA, r25
    1a34:	a0 93 bb 01 	sts	0x01BB, r26
    1a38:	b0 93 bc 01 	sts	0x01BC, r27
    1a3c:	db 01       	movw	r26, r22
    1a3e:	ca 01       	movw	r24, r20
    1a40:	02 96       	adiw	r24, 0x02	; 2
    1a42:	a1 1d       	adc	r26, r1
    1a44:	b1 1d       	adc	r27, r1
    1a46:	80 93 08 02 	sts	0x0208, r24
    1a4a:	90 93 09 02 	sts	0x0209, r25
    1a4e:	a0 93 0a 02 	sts	0x020A, r26
    1a52:	b0 93 0b 02 	sts	0x020B, r27
    1a56:	80 91 9e 01 	lds	r24, 0x019E
    1a5a:	90 91 9f 01 	lds	r25, 0x019F
    1a5e:	a0 91 a0 01 	lds	r26, 0x01A0
    1a62:	b0 91 a1 01 	lds	r27, 0x01A1
    1a66:	80 93 02 02 	sts	0x0202, r24
    1a6a:	90 93 03 02 	sts	0x0203, r25
    1a6e:	a0 93 04 02 	sts	0x0204, r26
    1a72:	b0 93 05 02 	sts	0x0205, r27
    1a76:	48 53       	subi	r20, 0x38	; 56
    1a78:	5f 4f       	sbci	r21, 0xFF	; 255
    1a7a:	6f 4f       	sbci	r22, 0xFF	; 255
    1a7c:	7f 4f       	sbci	r23, 0xFF	; 255
    1a7e:	40 93 f3 01 	sts	0x01F3, r20
    1a82:	50 93 f4 01 	sts	0x01F4, r21
    1a86:	60 93 f5 01 	sts	0x01F5, r22
    1a8a:	70 93 f6 01 	sts	0x01F6, r23
    1a8e:	45 ce       	rjmp	.-886    	; 0x171a <main+0x8e>
    1a90:	80 91 f7 01 	lds	r24, 0x01F7
    1a94:	81 30       	cpi	r24, 0x01	; 1
    1a96:	11 f0       	breq	.+4      	; 0x1a9c <main+0x410>
    1a98:	0c 94 cb 17 	jmp	0x2f96	; 0x2f96 <main+0x190a>
    1a9c:	80 91 d5 01 	lds	r24, 0x01D5
    1aa0:	81 30       	cpi	r24, 0x01	; 1
    1aa2:	11 f0       	breq	.+4      	; 0x1aa8 <main+0x41c>
    1aa4:	0c 94 cb 17 	jmp	0x2f96	; 0x2f96 <main+0x190a>
    1aa8:	80 91 b8 01 	lds	r24, 0x01B8
    1aac:	81 30       	cpi	r24, 0x01	; 1
    1aae:	11 f0       	breq	.+4      	; 0x1ab4 <main+0x428>
    1ab0:	0c 94 cb 17 	jmp	0x2f96	; 0x2f96 <main+0x190a>
    1ab4:	80 93 ac 01 	sts	0x01AC, r24
    1ab8:	32 e0       	ldi	r19, 0x02	; 2
    1aba:	30 93 e1 01 	sts	0x01E1, r19
    1abe:	10 93 b8 01 	sts	0x01B8, r17
    1ac2:	40 91 9e 01 	lds	r20, 0x019E
    1ac6:	50 91 9f 01 	lds	r21, 0x019F
    1aca:	60 91 a0 01 	lds	r22, 0x01A0
    1ace:	70 91 a1 01 	lds	r23, 0x01A1
    1ad2:	80 91 ad 01 	lds	r24, 0x01AD
    1ad6:	90 91 ae 01 	lds	r25, 0x01AE
    1ada:	91 cf       	rjmp	.-222    	; 0x19fe <main+0x372>
    1adc:	80 91 fd 01 	lds	r24, 0x01FD
    1ae0:	90 91 fe 01 	lds	r25, 0x01FE
    1ae4:	a0 91 ff 01 	lds	r26, 0x01FF
    1ae8:	b0 91 00 02 	lds	r27, 0x0200
    1aec:	81 3a       	cpi	r24, 0xA1	; 161
    1aee:	93 46       	sbci	r25, 0x63	; 99
    1af0:	af 46       	sbci	r26, 0x6F	; 111
    1af2:	b1 05       	cpc	r27, r1
    1af4:	68 f4       	brcc	.+26     	; 0x1b10 <main+0x484>
    1af6:	80 91 fd 01 	lds	r24, 0x01FD
    1afa:	90 91 fe 01 	lds	r25, 0x01FE
    1afe:	a0 91 ff 01 	lds	r26, 0x01FF
    1b02:	b0 91 00 02 	lds	r27, 0x0200
    1b06:	80 3c       	cpi	r24, 0xC0	; 192
    1b08:	9f 4c       	sbci	r25, 0xCF	; 207
    1b0a:	aa 46       	sbci	r26, 0x6A	; 106
    1b0c:	b1 05       	cpc	r27, r1
    1b0e:	38 f4       	brcc	.+14     	; 0x1b1e <main+0x492>
    1b10:	10 92 49 01 	sts	0x0149, r1
    1b14:	10 92 4b 01 	sts	0x014B, r1
    1b18:	10 92 4a 01 	sts	0x014A, r1
    1b1c:	07 c0       	rjmp	.+14     	; 0x1b2c <main+0x4a0>
    1b1e:	21 e0       	ldi	r18, 0x01	; 1
    1b20:	20 93 49 01 	sts	0x0149, r18
    1b24:	20 93 4b 01 	sts	0x014B, r18
    1b28:	20 93 4a 01 	sts	0x014A, r18
    1b2c:	40 91 9e 01 	lds	r20, 0x019E
    1b30:	50 91 9f 01 	lds	r21, 0x019F
    1b34:	60 91 a0 01 	lds	r22, 0x01A0
    1b38:	70 91 a1 01 	lds	r23, 0x01A1
    1b3c:	80 91 ef 01 	lds	r24, 0x01EF
    1b40:	90 91 f0 01 	lds	r25, 0x01F0
    1b44:	a0 91 f1 01 	lds	r26, 0x01F1
    1b48:	b0 91 f2 01 	lds	r27, 0x01F2
    1b4c:	84 17       	cp	r24, r20
    1b4e:	95 07       	cpc	r25, r21
    1b50:	a6 07       	cpc	r26, r22
    1b52:	b7 07       	cpc	r27, r23
    1b54:	e8 f4       	brcc	.+58     	; 0x1b90 <main+0x504>
    1b56:	32 e0       	ldi	r19, 0x02	; 2
    1b58:	30 93 ac 01 	sts	0x01AC, r19
    1b5c:	00 93 e1 01 	sts	0x01E1, r16
    1b60:	40 91 9e 01 	lds	r20, 0x019E
    1b64:	50 91 9f 01 	lds	r21, 0x019F
    1b68:	60 91 a0 01 	lds	r22, 0x01A0
    1b6c:	70 91 a1 01 	lds	r23, 0x01A1
    1b70:	80 91 ad 01 	lds	r24, 0x01AD
    1b74:	90 91 ae 01 	lds	r25, 0x01AE
    1b78:	48 0f       	add	r20, r24
    1b7a:	59 1f       	adc	r21, r25
    1b7c:	61 1d       	adc	r22, r1
    1b7e:	71 1d       	adc	r23, r1
    1b80:	40 93 ef 01 	sts	0x01EF, r20
    1b84:	50 93 f0 01 	sts	0x01F0, r21
    1b88:	60 93 f1 01 	sts	0x01F1, r22
    1b8c:	70 93 f2 01 	sts	0x01F2, r23
    1b90:	80 91 d5 01 	lds	r24, 0x01D5
    1b94:	81 30       	cpi	r24, 0x01	; 1
    1b96:	09 f0       	breq	.+2      	; 0x1b9a <main+0x50e>
    1b98:	c0 cd       	rjmp	.-1152   	; 0x171a <main+0x8e>
    1b9a:	80 91 b8 01 	lds	r24, 0x01B8
    1b9e:	81 30       	cpi	r24, 0x01	; 1
    1ba0:	09 f0       	breq	.+2      	; 0x1ba4 <main+0x518>
    1ba2:	bb cd       	rjmp	.-1162   	; 0x171a <main+0x8e>
    1ba4:	10 93 b8 01 	sts	0x01B8, r17
    1ba8:	b8 cd       	rjmp	.-1168   	; 0x171a <main+0x8e>
    1baa:	80 91 fd 01 	lds	r24, 0x01FD
    1bae:	90 91 fe 01 	lds	r25, 0x01FE
    1bb2:	a0 91 ff 01 	lds	r26, 0x01FF
    1bb6:	b0 91 00 02 	lds	r27, 0x0200
    1bba:	81 3a       	cpi	r24, 0xA1	; 161
    1bbc:	93 46       	sbci	r25, 0x63	; 99
    1bbe:	af 46       	sbci	r26, 0x6F	; 111
    1bc0:	b1 05       	cpc	r27, r1
    1bc2:	68 f4       	brcc	.+26     	; 0x1bde <main+0x552>
    1bc4:	80 91 fd 01 	lds	r24, 0x01FD
    1bc8:	90 91 fe 01 	lds	r25, 0x01FE
    1bcc:	a0 91 ff 01 	lds	r26, 0x01FF
    1bd0:	b0 91 00 02 	lds	r27, 0x0200
    1bd4:	80 3c       	cpi	r24, 0xC0	; 192
    1bd6:	9f 4c       	sbci	r25, 0xCF	; 207
    1bd8:	aa 46       	sbci	r26, 0x6A	; 106
    1bda:	b1 05       	cpc	r27, r1
    1bdc:	38 f4       	brcc	.+14     	; 0x1bec <main+0x560>
    1bde:	10 92 49 01 	sts	0x0149, r1
    1be2:	10 92 4b 01 	sts	0x014B, r1
    1be6:	10 92 4a 01 	sts	0x014A, r1
    1bea:	07 c0       	rjmp	.+14     	; 0x1bfa <main+0x56e>
    1bec:	21 e0       	ldi	r18, 0x01	; 1
    1bee:	20 93 49 01 	sts	0x0149, r18
    1bf2:	20 93 4b 01 	sts	0x014B, r18
    1bf6:	20 93 4a 01 	sts	0x014A, r18
    1bfa:	40 91 9e 01 	lds	r20, 0x019E
    1bfe:	50 91 9f 01 	lds	r21, 0x019F
    1c02:	60 91 a0 01 	lds	r22, 0x01A0
    1c06:	70 91 a1 01 	lds	r23, 0x01A1
    1c0a:	80 91 ef 01 	lds	r24, 0x01EF
    1c0e:	90 91 f0 01 	lds	r25, 0x01F0
    1c12:	a0 91 f1 01 	lds	r26, 0x01F1
    1c16:	b0 91 f2 01 	lds	r27, 0x01F2
    1c1a:	84 17       	cp	r24, r20
    1c1c:	95 07       	cpc	r25, r21
    1c1e:	a6 07       	cpc	r26, r22
    1c20:	b7 07       	cpc	r27, r23
    1c22:	e0 f4       	brcc	.+56     	; 0x1c5c <main+0x5d0>
    1c24:	10 93 ac 01 	sts	0x01AC, r17
    1c28:	00 93 e1 01 	sts	0x01E1, r16
    1c2c:	40 91 9e 01 	lds	r20, 0x019E
    1c30:	50 91 9f 01 	lds	r21, 0x019F
    1c34:	60 91 a0 01 	lds	r22, 0x01A0
    1c38:	70 91 a1 01 	lds	r23, 0x01A1
    1c3c:	80 91 ad 01 	lds	r24, 0x01AD
    1c40:	90 91 ae 01 	lds	r25, 0x01AE
    1c44:	48 0f       	add	r20, r24
    1c46:	59 1f       	adc	r21, r25
    1c48:	61 1d       	adc	r22, r1
    1c4a:	71 1d       	adc	r23, r1
    1c4c:	40 93 ef 01 	sts	0x01EF, r20
    1c50:	50 93 f0 01 	sts	0x01F0, r21
    1c54:	60 93 f1 01 	sts	0x01F1, r22
    1c58:	70 93 f2 01 	sts	0x01F2, r23
    1c5c:	80 91 f7 01 	lds	r24, 0x01F7
    1c60:	81 30       	cpi	r24, 0x01	; 1
    1c62:	09 f0       	breq	.+2      	; 0x1c66 <main+0x5da>
    1c64:	5a cd       	rjmp	.-1356   	; 0x171a <main+0x8e>
    1c66:	80 91 b8 01 	lds	r24, 0x01B8
    1c6a:	81 30       	cpi	r24, 0x01	; 1
    1c6c:	09 f0       	breq	.+2      	; 0x1c70 <main+0x5e4>
    1c6e:	55 cd       	rjmp	.-1366   	; 0x171a <main+0x8e>
    1c70:	32 e0       	ldi	r19, 0x02	; 2
    1c72:	30 93 b8 01 	sts	0x01B8, r19
    1c76:	51 cd       	rjmp	.-1374   	; 0x171a <main+0x8e>
    1c78:	80 91 9e 01 	lds	r24, 0x019E
    1c7c:	90 91 9f 01 	lds	r25, 0x019F
    1c80:	a0 91 a0 01 	lds	r26, 0x01A0
    1c84:	b0 91 a1 01 	lds	r27, 0x01A1
    1c88:	40 91 ef 01 	lds	r20, 0x01EF
    1c8c:	50 91 f0 01 	lds	r21, 0x01F0
    1c90:	60 91 f1 01 	lds	r22, 0x01F1
    1c94:	70 91 f2 01 	lds	r23, 0x01F2
    1c98:	48 17       	cp	r20, r24
    1c9a:	59 07       	cpc	r21, r25
    1c9c:	6a 07       	cpc	r22, r26
    1c9e:	7b 07       	cpc	r23, r27
    1ca0:	08 f0       	brcs	.+2      	; 0x1ca4 <main+0x618>
    1ca2:	8a c0       	rjmp	.+276    	; 0x1db8 <main+0x72c>
    1ca4:	80 91 b8 01 	lds	r24, 0x01B8
    1ca8:	82 30       	cpi	r24, 0x02	; 2
    1caa:	79 f4       	brne	.+30     	; 0x1cca <main+0x63e>
    1cac:	80 93 e1 01 	sts	0x01E1, r24
    1cb0:	40 91 9e 01 	lds	r20, 0x019E
    1cb4:	50 91 9f 01 	lds	r21, 0x019F
    1cb8:	60 91 a0 01 	lds	r22, 0x01A0
    1cbc:	70 91 a1 01 	lds	r23, 0x01A1
    1cc0:	80 91 ad 01 	lds	r24, 0x01AD
    1cc4:	90 91 ae 01 	lds	r25, 0x01AE
    1cc8:	16 c0       	rjmp	.+44     	; 0x1cf6 <main+0x66a>
    1cca:	83 30       	cpi	r24, 0x03	; 3
    1ccc:	09 f0       	breq	.+2      	; 0x1cd0 <main+0x644>
    1cce:	5c c0       	rjmp	.+184    	; 0x1d88 <main+0x6fc>
    1cd0:	10 93 e1 01 	sts	0x01E1, r17
    1cd4:	40 91 9e 01 	lds	r20, 0x019E
    1cd8:	50 91 9f 01 	lds	r21, 0x019F
    1cdc:	60 91 a0 01 	lds	r22, 0x01A0
    1ce0:	70 91 a1 01 	lds	r23, 0x01A1
    1ce4:	20 91 ad 01 	lds	r18, 0x01AD
    1ce8:	30 91 ae 01 	lds	r19, 0x01AE
    1cec:	c9 01       	movw	r24, r18
    1cee:	88 0f       	add	r24, r24
    1cf0:	99 1f       	adc	r25, r25
    1cf2:	82 0f       	add	r24, r18
    1cf4:	93 1f       	adc	r25, r19
    1cf6:	48 0f       	add	r20, r24
    1cf8:	59 1f       	adc	r21, r25
    1cfa:	61 1d       	adc	r22, r1
    1cfc:	71 1d       	adc	r23, r1
    1cfe:	40 93 ef 01 	sts	0x01EF, r20
    1d02:	50 93 f0 01 	sts	0x01F0, r21
    1d06:	60 93 f1 01 	sts	0x01F1, r22
    1d0a:	70 93 f2 01 	sts	0x01F2, r23
    1d0e:	80 91 9e 01 	lds	r24, 0x019E
    1d12:	90 91 9f 01 	lds	r25, 0x019F
    1d16:	a0 91 a0 01 	lds	r26, 0x01A0
    1d1a:	b0 91 a1 01 	lds	r27, 0x01A1
    1d1e:	02 96       	adiw	r24, 0x02	; 2
    1d20:	a1 1d       	adc	r26, r1
    1d22:	b1 1d       	adc	r27, r1
    1d24:	80 93 b9 01 	sts	0x01B9, r24
    1d28:	90 93 ba 01 	sts	0x01BA, r25
    1d2c:	a0 93 bb 01 	sts	0x01BB, r26
    1d30:	b0 93 bc 01 	sts	0x01BC, r27
    1d34:	db 01       	movw	r26, r22
    1d36:	ca 01       	movw	r24, r20
    1d38:	02 96       	adiw	r24, 0x02	; 2
    1d3a:	a1 1d       	adc	r26, r1
    1d3c:	b1 1d       	adc	r27, r1
    1d3e:	80 93 08 02 	sts	0x0208, r24
    1d42:	90 93 09 02 	sts	0x0209, r25
    1d46:	a0 93 0a 02 	sts	0x020A, r26
    1d4a:	b0 93 0b 02 	sts	0x020B, r27
    1d4e:	80 91 9e 01 	lds	r24, 0x019E
    1d52:	90 91 9f 01 	lds	r25, 0x019F
    1d56:	a0 91 a0 01 	lds	r26, 0x01A0
    1d5a:	b0 91 a1 01 	lds	r27, 0x01A1
    1d5e:	80 93 02 02 	sts	0x0202, r24
    1d62:	90 93 03 02 	sts	0x0203, r25
    1d66:	a0 93 04 02 	sts	0x0204, r26
    1d6a:	b0 93 05 02 	sts	0x0205, r27
    1d6e:	48 53       	subi	r20, 0x38	; 56
    1d70:	5f 4f       	sbci	r21, 0xFF	; 255
    1d72:	6f 4f       	sbci	r22, 0xFF	; 255
    1d74:	7f 4f       	sbci	r23, 0xFF	; 255
    1d76:	40 93 f3 01 	sts	0x01F3, r20
    1d7a:	50 93 f4 01 	sts	0x01F4, r21
    1d7e:	60 93 f5 01 	sts	0x01F5, r22
    1d82:	70 93 f6 01 	sts	0x01F6, r23
    1d86:	13 c0       	rjmp	.+38     	; 0x1dae <main+0x722>
    1d88:	81 e0       	ldi	r24, 0x01	; 1
    1d8a:	80 93 e1 01 	sts	0x01E1, r24
    1d8e:	40 91 9e 01 	lds	r20, 0x019E
    1d92:	50 91 9f 01 	lds	r21, 0x019F
    1d96:	60 91 a0 01 	lds	r22, 0x01A0
    1d9a:	70 91 a1 01 	lds	r23, 0x01A1
    1d9e:	40 93 ef 01 	sts	0x01EF, r20
    1da2:	50 93 f0 01 	sts	0x01F0, r21
    1da6:	60 93 f1 01 	sts	0x01F1, r22
    1daa:	70 93 f2 01 	sts	0x01F2, r23
    1dae:	00 93 ac 01 	sts	0x01AC, r16
    1db2:	91 e0       	ldi	r25, 0x01	; 1
    1db4:	90 93 b8 01 	sts	0x01B8, r25
    1db8:	80 91 f7 01 	lds	r24, 0x01F7
    1dbc:	81 30       	cpi	r24, 0x01	; 1
    1dbe:	61 f4       	brne	.+24     	; 0x1dd8 <main+0x74c>
    1dc0:	80 91 ac 01 	lds	r24, 0x01AC
    1dc4:	83 30       	cpi	r24, 0x03	; 3
    1dc6:	41 f4       	brne	.+16     	; 0x1dd8 <main+0x74c>
    1dc8:	80 91 b8 01 	lds	r24, 0x01B8
    1dcc:	81 30       	cpi	r24, 0x01	; 1
    1dce:	21 f4       	brne	.+8      	; 0x1dd8 <main+0x74c>
    1dd0:	a2 e0       	ldi	r26, 0x02	; 2
    1dd2:	a0 93 b8 01 	sts	0x01B8, r26
    1dd6:	0e c0       	rjmp	.+28     	; 0x1df4 <main+0x768>
    1dd8:	80 91 d5 01 	lds	r24, 0x01D5
    1ddc:	81 30       	cpi	r24, 0x01	; 1
    1dde:	51 f4       	brne	.+20     	; 0x1df4 <main+0x768>
    1de0:	80 91 ac 01 	lds	r24, 0x01AC
    1de4:	82 30       	cpi	r24, 0x02	; 2
    1de6:	31 f4       	brne	.+12     	; 0x1df4 <main+0x768>
    1de8:	80 91 b8 01 	lds	r24, 0x01B8
    1dec:	81 30       	cpi	r24, 0x01	; 1
    1dee:	11 f4       	brne	.+4      	; 0x1df4 <main+0x768>
    1df0:	10 93 b8 01 	sts	0x01B8, r17
    1df4:	10 92 49 01 	sts	0x0149, r1
    1df8:	10 92 4b 01 	sts	0x014B, r1
    1dfc:	40 91 fd 01 	lds	r20, 0x01FD
    1e00:	50 91 fe 01 	lds	r21, 0x01FE
    1e04:	60 91 ff 01 	lds	r22, 0x01FF
    1e08:	70 91 00 02 	lds	r23, 0x0200
    1e0c:	41 3a       	cpi	r20, 0xA1	; 161
    1e0e:	53 46       	sbci	r21, 0x63	; 99
    1e10:	6f 46       	sbci	r22, 0x6F	; 111
    1e12:	71 05       	cpc	r23, r1
    1e14:	68 f4       	brcc	.+26     	; 0x1e30 <main+0x7a4>
    1e16:	40 91 fd 01 	lds	r20, 0x01FD
    1e1a:	50 91 fe 01 	lds	r21, 0x01FE
    1e1e:	60 91 ff 01 	lds	r22, 0x01FF
    1e22:	70 91 00 02 	lds	r23, 0x0200
    1e26:	40 3c       	cpi	r20, 0xC0	; 192
    1e28:	5f 4c       	sbci	r21, 0xCF	; 207
    1e2a:	6a 46       	sbci	r22, 0x6A	; 106
    1e2c:	71 05       	cpc	r23, r1
    1e2e:	18 f4       	brcc	.+6      	; 0x1e36 <main+0x7aa>
    1e30:	10 92 4a 01 	sts	0x014A, r1
    1e34:	72 cc       	rjmp	.-1820   	; 0x171a <main+0x8e>
    1e36:	f1 e0       	ldi	r31, 0x01	; 1
    1e38:	21 c7       	rjmp	.+3650   	; 0x2c7c <main+0x15f0>
    1e3a:	10 92 49 01 	sts	0x0149, r1
    1e3e:	10 92 4b 01 	sts	0x014B, r1
    1e42:	21 e0       	ldi	r18, 0x01	; 1
    1e44:	20 93 4a 01 	sts	0x014A, r18
    1e48:	80 91 9e 01 	lds	r24, 0x019E
    1e4c:	90 91 9f 01 	lds	r25, 0x019F
    1e50:	a0 91 a0 01 	lds	r26, 0x01A0
    1e54:	b0 91 a1 01 	lds	r27, 0x01A1
    1e58:	40 91 ef 01 	lds	r20, 0x01EF
    1e5c:	50 91 f0 01 	lds	r21, 0x01F0
    1e60:	60 91 f1 01 	lds	r22, 0x01F1
    1e64:	70 91 f2 01 	lds	r23, 0x01F2
    1e68:	48 17       	cp	r20, r24
    1e6a:	59 07       	cpc	r21, r25
    1e6c:	6a 07       	cpc	r22, r26
    1e6e:	7b 07       	cpc	r23, r27
    1e70:	10 f4       	brcc	.+4      	; 0x1e76 <main+0x7ea>
    1e72:	20 93 e1 01 	sts	0x01E1, r18
    1e76:	40 91 9e 01 	lds	r20, 0x019E
    1e7a:	50 91 9f 01 	lds	r21, 0x019F
    1e7e:	60 91 a0 01 	lds	r22, 0x01A0
    1e82:	70 91 a1 01 	lds	r23, 0x01A1
    1e86:	44 5d       	subi	r20, 0xD4	; 212
    1e88:	5e 4f       	sbci	r21, 0xFE	; 254
    1e8a:	6f 4f       	sbci	r22, 0xFF	; 255
    1e8c:	7f 4f       	sbci	r23, 0xFF	; 255
    1e8e:	40 93 e8 01 	sts	0x01E8, r20
    1e92:	50 93 e9 01 	sts	0x01E9, r21
    1e96:	60 93 ea 01 	sts	0x01EA, r22
    1e9a:	70 93 eb 01 	sts	0x01EB, r23
    1e9e:	3d cc       	rjmp	.-1926   	; 0x171a <main+0x8e>
    1ea0:	80 91 e1 01 	lds	r24, 0x01E1
    1ea4:	84 30       	cpi	r24, 0x04	; 4
    1ea6:	38 f4       	brcc	.+14     	; 0x1eb6 <main+0x82a>
    1ea8:	82 30       	cpi	r24, 0x02	; 2
    1eaa:	08 f0       	brcs	.+2      	; 0x1eae <main+0x822>
    1eac:	ae c0       	rjmp	.+348    	; 0x200a <main+0x97e>
    1eae:	81 30       	cpi	r24, 0x01	; 1
    1eb0:	09 f0       	breq	.+2      	; 0x1eb4 <main+0x828>
    1eb2:	33 cc       	rjmp	.-1946   	; 0x171a <main+0x8e>
    1eb4:	04 c0       	rjmp	.+8      	; 0x1ebe <main+0x832>
    1eb6:	87 30       	cpi	r24, 0x07	; 7
    1eb8:	08 f0       	brcs	.+2      	; 0x1ebc <main+0x830>
    1eba:	2f cc       	rjmp	.-1954   	; 0x171a <main+0x8e>
    1ebc:	dd c0       	rjmp	.+442    	; 0x2078 <main+0x9ec>
    1ebe:	a0 91 8f 01 	lds	r26, 0x018F
    1ec2:	b0 91 90 01 	lds	r27, 0x0190
    1ec6:	80 91 06 02 	lds	r24, 0x0206
    1eca:	90 91 07 02 	lds	r25, 0x0207
    1ece:	a8 17       	cp	r26, r24
    1ed0:	b9 07       	cpc	r27, r25
    1ed2:	59 f4       	brne	.+22     	; 0x1eea <main+0x85e>
    1ed4:	20 91 91 01 	lds	r18, 0x0191
    1ed8:	21 11       	cpse	r18, r1
    1eda:	07 c0       	rjmp	.+14     	; 0x1eea <main+0x85e>
    1edc:	ec 91       	ld	r30, X
    1ede:	f0 e0       	ldi	r31, 0x00	; 0
    1ee0:	e8 5b       	subi	r30, 0xB8	; 184
    1ee2:	fe 4f       	sbci	r31, 0xFE	; 254
    1ee4:	e4 91       	lpm	r30, Z+
    1ee6:	e0 93 91 01 	sts	0x0191, r30
    1eea:	e0 91 91 01 	lds	r30, 0x0191
    1eee:	ee 23       	and	r30, r30
    1ef0:	09 f4       	brne	.+2      	; 0x1ef4 <main+0x868>
    1ef2:	5a c0       	rjmp	.+180    	; 0x1fa8 <main+0x91c>
    1ef4:	80 91 ad 01 	lds	r24, 0x01AD
    1ef8:	90 91 ae 01 	lds	r25, 0x01AE
    1efc:	e0 38       	cpi	r30, 0x80	; 128
    1efe:	19 f0       	breq	.+6      	; 0x1f06 <main+0x87a>
    1f00:	ef 3f       	cpi	r30, 0xFF	; 255
    1f02:	09 f5       	brne	.+66     	; 0x1f46 <main+0x8ba>
    1f04:	0e c0       	rjmp	.+28     	; 0x1f22 <main+0x896>
    1f06:	40 91 9e 01 	lds	r20, 0x019E
    1f0a:	50 91 9f 01 	lds	r21, 0x019F
    1f0e:	60 91 a0 01 	lds	r22, 0x01A0
    1f12:	70 91 a1 01 	lds	r23, 0x01A1
    1f16:	9c 01       	movw	r18, r24
    1f18:	22 0f       	add	r18, r18
    1f1a:	33 1f       	adc	r19, r19
    1f1c:	28 0f       	add	r18, r24
    1f1e:	39 1f       	adc	r19, r25
    1f20:	0d c0       	rjmp	.+26     	; 0x1f3c <main+0x8b0>
    1f22:	40 91 9e 01 	lds	r20, 0x019E
    1f26:	50 91 9f 01 	lds	r21, 0x019F
    1f2a:	60 91 a0 01 	lds	r22, 0x01A0
    1f2e:	70 91 a1 01 	lds	r23, 0x01A1
    1f32:	a8 9e       	mul	r10, r24
    1f34:	90 01       	movw	r18, r0
    1f36:	a9 9e       	mul	r10, r25
    1f38:	30 0d       	add	r19, r0
    1f3a:	11 24       	eor	r1, r1
    1f3c:	42 0f       	add	r20, r18
    1f3e:	53 1f       	adc	r21, r19
    1f40:	61 1d       	adc	r22, r1
    1f42:	71 1d       	adc	r23, r1
    1f44:	c8 c3       	rjmp	.+1936   	; 0x26d6 <main+0x104a>
    1f46:	40 91 9e 01 	lds	r20, 0x019E
    1f4a:	50 91 9f 01 	lds	r21, 0x019F
    1f4e:	60 91 a0 01 	lds	r22, 0x01A0
    1f52:	70 91 a1 01 	lds	r23, 0x01A1
    1f56:	e7 ff       	sbrs	r30, 7
    1f58:	14 c0       	rjmp	.+40     	; 0x1f82 <main+0x8f6>
    1f5a:	9c 01       	movw	r18, r24
    1f5c:	22 0f       	add	r18, r18
    1f5e:	33 1f       	adc	r19, r19
    1f60:	28 0f       	add	r18, r24
    1f62:	39 1f       	adc	r19, r25
    1f64:	42 0f       	add	r20, r18
    1f66:	53 1f       	adc	r21, r19
    1f68:	61 1d       	adc	r22, r1
    1f6a:	71 1d       	adc	r23, r1
    1f6c:	40 93 ef 01 	sts	0x01EF, r20
    1f70:	50 93 f0 01 	sts	0x01F0, r21
    1f74:	60 93 f1 01 	sts	0x01F1, r22
    1f78:	70 93 f2 01 	sts	0x01F2, r23
    1f7c:	10 93 e1 01 	sts	0x01E1, r17
    1f80:	0f c0       	rjmp	.+30     	; 0x1fa0 <main+0x914>
    1f82:	48 0f       	add	r20, r24
    1f84:	59 1f       	adc	r21, r25
    1f86:	61 1d       	adc	r22, r1
    1f88:	71 1d       	adc	r23, r1
    1f8a:	40 93 ef 01 	sts	0x01EF, r20
    1f8e:	50 93 f0 01 	sts	0x01F0, r21
    1f92:	60 93 f1 01 	sts	0x01F1, r22
    1f96:	70 93 f2 01 	sts	0x01F2, r23
    1f9a:	32 e0       	ldi	r19, 0x02	; 2
    1f9c:	30 93 e1 01 	sts	0x01E1, r19
    1fa0:	ee 0f       	add	r30, r30
    1fa2:	e0 93 91 01 	sts	0x0191, r30
    1fa6:	b9 cb       	rjmp	.-2190   	; 0x171a <main+0x8e>
    1fa8:	61 e4       	ldi	r22, 0x41	; 65
    1faa:	71 e0       	ldi	r23, 0x01	; 1
    1fac:	0e 94 78 19 	call	0x32f0	; 0x32f0 <strcpy>
    1fb0:	80 91 06 02 	lds	r24, 0x0206
    1fb4:	90 91 07 02 	lds	r25, 0x0207
    1fb8:	90 93 90 01 	sts	0x0190, r25
    1fbc:	80 93 8f 01 	sts	0x018F, r24
    1fc0:	10 92 91 01 	sts	0x0191, r1
    1fc4:	a0 91 e6 01 	lds	r26, 0x01E6
    1fc8:	b0 91 e7 01 	lds	r27, 0x01E7
    1fcc:	b0 93 ce 01 	sts	0x01CE, r27
    1fd0:	a0 93 cd 01 	sts	0x01CD, r26
    1fd4:	29 eb       	ldi	r18, 0xB9	; 185
    1fd6:	3d e8       	ldi	r19, 0x8D	; 141
    1fd8:	46 e0       	ldi	r20, 0x06	; 6
    1fda:	50 e0       	ldi	r21, 0x00	; 0
    1fdc:	0e 94 d0 17 	call	0x2fa0	; 0x2fa0 <__muluhisi3>
    1fe0:	60 93 c3 01 	sts	0x01C3, r22
    1fe4:	70 93 c4 01 	sts	0x01C4, r23
    1fe8:	80 93 c5 01 	sts	0x01C5, r24
    1fec:	90 93 c6 01 	sts	0x01C6, r25
    1ff0:	60 91 0d 02 	lds	r22, 0x020D
    1ff4:	60 93 01 02 	sts	0x0201, r22
    1ff8:	c4 01       	movw	r24, r8
    1ffa:	70 e0       	ldi	r23, 0x00	; 0
    1ffc:	0e 94 ff 17 	call	0x2ffe	; 0x2ffe <__divmodhi4>
    2000:	70 93 ae 01 	sts	0x01AE, r23
    2004:	60 93 ad 01 	sts	0x01AD, r22
    2008:	15 c4       	rjmp	.+2090   	; 0x2834 <main+0x11a8>
    200a:	80 91 9e 01 	lds	r24, 0x019E
    200e:	90 91 9f 01 	lds	r25, 0x019F
    2012:	a0 91 a0 01 	lds	r26, 0x01A0
    2016:	b0 91 a1 01 	lds	r27, 0x01A1
    201a:	40 91 ef 01 	lds	r20, 0x01EF
    201e:	50 91 f0 01 	lds	r21, 0x01F0
    2022:	60 91 f1 01 	lds	r22, 0x01F1
    2026:	70 91 f2 01 	lds	r23, 0x01F2
    202a:	48 17       	cp	r20, r24
    202c:	59 07       	cpc	r21, r25
    202e:	6a 07       	cpc	r22, r26
    2030:	7b 07       	cpc	r23, r27
    2032:	d0 f4       	brcc	.+52     	; 0x2068 <main+0x9dc>
    2034:	40 91 9e 01 	lds	r20, 0x019E
    2038:	50 91 9f 01 	lds	r21, 0x019F
    203c:	60 91 a0 01 	lds	r22, 0x01A0
    2040:	70 91 a1 01 	lds	r23, 0x01A1
    2044:	80 91 ad 01 	lds	r24, 0x01AD
    2048:	90 91 ae 01 	lds	r25, 0x01AE
    204c:	48 0f       	add	r20, r24
    204e:	59 1f       	adc	r21, r25
    2050:	61 1d       	adc	r22, r1
    2052:	71 1d       	adc	r23, r1
    2054:	40 93 ef 01 	sts	0x01EF, r20
    2058:	50 93 f0 01 	sts	0x01F0, r21
    205c:	60 93 f1 01 	sts	0x01F1, r22
    2060:	70 93 f2 01 	sts	0x01F2, r23
    2064:	00 93 e1 01 	sts	0x01E1, r16
    2068:	10 92 49 01 	sts	0x0149, r1
    206c:	81 e0       	ldi	r24, 0x01	; 1
    206e:	80 93 4b 01 	sts	0x014B, r24
    2072:	80 93 4a 01 	sts	0x014A, r24
    2076:	51 cb       	rjmp	.-2398   	; 0x171a <main+0x8e>
    2078:	80 91 9e 01 	lds	r24, 0x019E
    207c:	90 91 9f 01 	lds	r25, 0x019F
    2080:	a0 91 a0 01 	lds	r26, 0x01A0
    2084:	b0 91 a1 01 	lds	r27, 0x01A1
    2088:	40 91 ef 01 	lds	r20, 0x01EF
    208c:	50 91 f0 01 	lds	r21, 0x01F0
    2090:	60 91 f1 01 	lds	r22, 0x01F1
    2094:	70 91 f2 01 	lds	r23, 0x01F2
    2098:	48 17       	cp	r20, r24
    209a:	59 07       	cpc	r21, r25
    209c:	6a 07       	cpc	r22, r26
    209e:	7b 07       	cpc	r23, r27
    20a0:	18 f4       	brcc	.+6      	; 0x20a8 <main+0xa1c>
    20a2:	91 e0       	ldi	r25, 0x01	; 1
    20a4:	90 93 e1 01 	sts	0x01E1, r25
    20a8:	10 92 49 01 	sts	0x0149, r1
    20ac:	10 92 4b 01 	sts	0x014B, r1
    20b0:	a1 e0       	ldi	r26, 0x01	; 1
    20b2:	a0 93 4a 01 	sts	0x014A, r26
    20b6:	31 cb       	rjmp	.-2462   	; 0x171a <main+0x8e>
    20b8:	80 91 e1 01 	lds	r24, 0x01E1
    20bc:	87 30       	cpi	r24, 0x07	; 7
    20be:	09 f4       	brne	.+2      	; 0x20c2 <main+0xa36>
    20c0:	45 c0       	rjmp	.+138    	; 0x214c <main+0xac0>
    20c2:	88 30       	cpi	r24, 0x08	; 8
    20c4:	09 f4       	brne	.+2      	; 0x20c8 <main+0xa3c>
    20c6:	82 c0       	rjmp	.+260    	; 0x21cc <main+0xb40>
    20c8:	81 30       	cpi	r24, 0x01	; 1
    20ca:	09 f0       	breq	.+2      	; 0x20ce <main+0xa42>
    20cc:	26 cb       	rjmp	.-2484   	; 0x171a <main+0x8e>
    20ce:	40 91 9e 01 	lds	r20, 0x019E
    20d2:	50 91 9f 01 	lds	r21, 0x019F
    20d6:	60 91 a0 01 	lds	r22, 0x01A0
    20da:	70 91 a1 01 	lds	r23, 0x01A1
    20de:	4e 5f       	subi	r20, 0xFE	; 254
    20e0:	5f 4f       	sbci	r21, 0xFF	; 255
    20e2:	6f 4f       	sbci	r22, 0xFF	; 255
    20e4:	7f 4f       	sbci	r23, 0xFF	; 255
    20e6:	40 93 b9 01 	sts	0x01B9, r20
    20ea:	50 93 ba 01 	sts	0x01BA, r21
    20ee:	60 93 bb 01 	sts	0x01BB, r22
    20f2:	70 93 bc 01 	sts	0x01BC, r23
    20f6:	c0 92 08 02 	sts	0x0208, r12
    20fa:	d0 92 09 02 	sts	0x0209, r13
    20fe:	e0 92 0a 02 	sts	0x020A, r14
    2102:	f0 92 0b 02 	sts	0x020B, r15
    2106:	c0 92 ef 01 	sts	0x01EF, r12
    210a:	d0 92 f0 01 	sts	0x01F0, r13
    210e:	e0 92 f1 01 	sts	0x01F1, r14
    2112:	f0 92 f2 01 	sts	0x01F2, r15
    2116:	40 91 9e 01 	lds	r20, 0x019E
    211a:	50 91 9f 01 	lds	r21, 0x019F
    211e:	60 91 a0 01 	lds	r22, 0x01A0
    2122:	70 91 a1 01 	lds	r23, 0x01A1
    2126:	40 93 02 02 	sts	0x0202, r20
    212a:	50 93 03 02 	sts	0x0203, r21
    212e:	60 93 04 02 	sts	0x0204, r22
    2132:	70 93 05 02 	sts	0x0205, r23
    2136:	c0 92 f3 01 	sts	0x01F3, r12
    213a:	d0 92 f4 01 	sts	0x01F4, r13
    213e:	e0 92 f5 01 	sts	0x01F5, r14
    2142:	f0 92 f6 01 	sts	0x01F6, r15
    2146:	a0 92 e1 01 	sts	0x01E1, r10
    214a:	e7 ca       	rjmp	.-2610   	; 0x171a <main+0x8e>
    214c:	b1 e0       	ldi	r27, 0x01	; 1
    214e:	b0 93 49 01 	sts	0x0149, r27
    2152:	b0 93 4b 01 	sts	0x014B, r27
    2156:	b0 93 4a 01 	sts	0x014A, r27
    215a:	80 91 f7 01 	lds	r24, 0x01F7
    215e:	81 30       	cpi	r24, 0x01	; 1
    2160:	69 f0       	breq	.+26     	; 0x217c <main+0xaf0>
    2162:	80 91 d5 01 	lds	r24, 0x01D5
    2166:	81 30       	cpi	r24, 0x01	; 1
    2168:	49 f0       	breq	.+18     	; 0x217c <main+0xaf0>
    216a:	80 91 dc 01 	lds	r24, 0x01DC
    216e:	81 30       	cpi	r24, 0x01	; 1
    2170:	29 f0       	breq	.+10     	; 0x217c <main+0xaf0>
    2172:	80 91 da 01 	lds	r24, 0x01DA
    2176:	81 30       	cpi	r24, 0x01	; 1
    2178:	09 f0       	breq	.+2      	; 0x217c <main+0xaf0>
    217a:	cf ca       	rjmp	.-2658   	; 0x171a <main+0x8e>
    217c:	88 e0       	ldi	r24, 0x08	; 8
    217e:	80 93 e1 01 	sts	0x01E1, r24
    2182:	40 91 9e 01 	lds	r20, 0x019E
    2186:	50 91 9f 01 	lds	r21, 0x019F
    218a:	60 91 a0 01 	lds	r22, 0x01A0
    218e:	70 91 a1 01 	lds	r23, 0x01A1
    2192:	48 53       	subi	r20, 0x38	; 56
    2194:	5f 4f       	sbci	r21, 0xFF	; 255
    2196:	6f 4f       	sbci	r22, 0xFF	; 255
    2198:	7f 4f       	sbci	r23, 0xFF	; 255
    219a:	40 93 ef 01 	sts	0x01EF, r20
    219e:	50 93 f0 01 	sts	0x01F0, r21
    21a2:	60 93 f1 01 	sts	0x01F1, r22
    21a6:	70 93 f2 01 	sts	0x01F2, r23
    21aa:	40 91 9e 01 	lds	r20, 0x019E
    21ae:	50 91 9f 01 	lds	r21, 0x019F
    21b2:	60 91 a0 01 	lds	r22, 0x01A0
    21b6:	70 91 a1 01 	lds	r23, 0x01A1
    21ba:	40 93 08 02 	sts	0x0208, r20
    21be:	50 93 09 02 	sts	0x0209, r21
    21c2:	60 93 0a 02 	sts	0x020A, r22
    21c6:	70 93 0b 02 	sts	0x020B, r23
    21ca:	a7 ca       	rjmp	.-2738   	; 0x171a <main+0x8e>
    21cc:	10 92 49 01 	sts	0x0149, r1
    21d0:	10 92 4b 01 	sts	0x014B, r1
    21d4:	e1 e0       	ldi	r30, 0x01	; 1
    21d6:	e0 93 4a 01 	sts	0x014A, r30
    21da:	80 91 9e 01 	lds	r24, 0x019E
    21de:	90 91 9f 01 	lds	r25, 0x019F
    21e2:	a0 91 a0 01 	lds	r26, 0x01A0
    21e6:	b0 91 a1 01 	lds	r27, 0x01A1
    21ea:	40 91 ef 01 	lds	r20, 0x01EF
    21ee:	50 91 f0 01 	lds	r21, 0x01F0
    21f2:	60 91 f1 01 	lds	r22, 0x01F1
    21f6:	70 91 f2 01 	lds	r23, 0x01F2
    21fa:	84 17       	cp	r24, r20
    21fc:	95 07       	cpc	r25, r21
    21fe:	a6 07       	cpc	r26, r22
    2200:	b7 07       	cpc	r27, r23
    2202:	08 f4       	brcc	.+2      	; 0x2206 <main+0xb7a>
    2204:	8a ca       	rjmp	.-2796   	; 0x171a <main+0x8e>
    2206:	10 92 4a 01 	sts	0x014A, r1
    220a:	e0 93 e1 01 	sts	0x01E1, r30
    220e:	3f c1       	rjmp	.+638    	; 0x248e <main+0xe02>
    2210:	80 91 e1 01 	lds	r24, 0x01E1
    2214:	89 30       	cpi	r24, 0x09	; 9
    2216:	71 f0       	breq	.+28     	; 0x2234 <main+0xba8>
    2218:	8a 30       	cpi	r24, 0x0A	; 10
    221a:	09 f4       	brne	.+2      	; 0x221e <main+0xb92>
    221c:	41 c0       	rjmp	.+130    	; 0x22a0 <main+0xc14>
    221e:	81 30       	cpi	r24, 0x01	; 1
    2220:	09 f0       	breq	.+2      	; 0x2224 <main+0xb98>
    2222:	32 c1       	rjmp	.+612    	; 0x2488 <main+0xdfc>
    2224:	25 e0       	ldi	r18, 0x05	; 5
    2226:	31 e0       	ldi	r19, 0x01	; 1
    2228:	30 93 93 01 	sts	0x0193, r19
    222c:	20 93 92 01 	sts	0x0192, r18
    2230:	39 e0       	ldi	r19, 0x09	; 9
    2232:	b4 c3       	rjmp	.+1896   	; 0x299c <main+0x1310>
    2234:	82 e0       	ldi	r24, 0x02	; 2
    2236:	90 e0       	ldi	r25, 0x00	; 0
    2238:	0e 94 41 18 	call	0x3082	; 0x3082 <malloc>
    223c:	fc 01       	movw	r30, r24
    223e:	90 93 95 01 	sts	0x0195, r25
    2242:	80 93 94 01 	sts	0x0194, r24
    2246:	11 82       	std	Z+1, r1	; 0x01
    2248:	10 82       	st	Z, r1
    224a:	a0 91 92 01 	lds	r26, 0x0192
    224e:	b0 91 93 01 	lds	r27, 0x0193
    2252:	8c 91       	ld	r24, X
    2254:	80 83       	st	Z, r24
    2256:	40 91 9e 01 	lds	r20, 0x019E
    225a:	50 91 9f 01 	lds	r21, 0x019F
    225e:	60 91 a0 01 	lds	r22, 0x01A0
    2262:	70 91 a1 01 	lds	r23, 0x01A1
    2266:	40 56       	subi	r20, 0x60	; 96
    2268:	50 4f       	sbci	r21, 0xF0	; 240
    226a:	6f 4f       	sbci	r22, 0xFF	; 255
    226c:	7f 4f       	sbci	r23, 0xFF	; 255
    226e:	40 93 ef 01 	sts	0x01EF, r20
    2272:	50 93 f0 01 	sts	0x01F0, r21
    2276:	60 93 f1 01 	sts	0x01F1, r22
    227a:	70 93 f2 01 	sts	0x01F2, r23
    227e:	8a e0       	ldi	r24, 0x0A	; 10
    2280:	80 93 e1 01 	sts	0x01E1, r24
    2284:	60 91 cd 01 	lds	r22, 0x01CD
    2288:	70 91 ce 01 	lds	r23, 0x01CE
    228c:	40 91 01 02 	lds	r20, 0x0201
    2290:	cf 01       	movw	r24, r30
    2292:	0e 94 da 02 	call	0x5b4	; 0x5b4 <announce>
    2296:	80 91 94 01 	lds	r24, 0x0194
    229a:	90 91 95 01 	lds	r25, 0x0195
    229e:	f1 c0       	rjmp	.+482    	; 0x2482 <main+0xdf6>
    22a0:	84 e1       	ldi	r24, 0x14	; 20
    22a2:	90 e0       	ldi	r25, 0x00	; 0
    22a4:	0e 94 41 18 	call	0x3082	; 0x3082 <malloc>
    22a8:	80 93 d3 01 	sts	0x01D3, r24
    22ac:	90 93 d4 01 	sts	0x01D4, r25
    22b0:	dc 01       	movw	r26, r24
    22b2:	24 e1       	ldi	r18, 0x14	; 20
    22b4:	1d 92       	st	X+, r1
    22b6:	2a 95       	dec	r18
    22b8:	e9 f7       	brne	.-6      	; 0x22b4 <main+0xc28>
    22ba:	80 91 9e 01 	lds	r24, 0x019E
    22be:	90 91 9f 01 	lds	r25, 0x019F
    22c2:	a0 91 a0 01 	lds	r26, 0x01A0
    22c6:	b0 91 a1 01 	lds	r27, 0x01A1
    22ca:	40 91 ef 01 	lds	r20, 0x01EF
    22ce:	50 91 f0 01 	lds	r21, 0x01F0
    22d2:	60 91 f1 01 	lds	r22, 0x01F1
    22d6:	70 91 f2 01 	lds	r23, 0x01F2
    22da:	84 17       	cp	r24, r20
    22dc:	95 07       	cpc	r25, r21
    22de:	a6 07       	cpc	r26, r22
    22e0:	b7 07       	cpc	r27, r23
    22e2:	08 f0       	brcs	.+2      	; 0x22e6 <main+0xc5a>
    22e4:	bb c0       	rjmp	.+374    	; 0x245c <main+0xdd0>
    22e6:	50 90 dc 01 	lds	r5, 0x01DC
    22ea:	31 e0       	ldi	r19, 0x01	; 1
    22ec:	53 12       	cpse	r5, r19
    22ee:	17 c0       	rjmp	.+46     	; 0x231e <main+0xc92>
    22f0:	81 e0       	ldi	r24, 0x01	; 1
    22f2:	0e 94 59 01 	call	0x2b2	; 0x2b2 <debounce>
    22f6:	e0 91 92 01 	lds	r30, 0x0192
    22fa:	f0 91 93 01 	lds	r31, 0x0193
    22fe:	cf 01       	movw	r24, r30
    2300:	01 96       	adiw	r24, 0x01	; 1
    2302:	90 93 93 01 	sts	0x0193, r25
    2306:	80 93 92 01 	sts	0x0192, r24
    230a:	81 81       	ldd	r24, Z+1	; 0x01
    230c:	81 11       	cpse	r24, r1
    230e:	03 c0       	rjmp	.+6      	; 0x2316 <main+0xc8a>
    2310:	50 92 e1 01 	sts	0x01E1, r5
    2314:	a6 c0       	rjmp	.+332    	; 0x2462 <main+0xdd6>
    2316:	89 e0       	ldi	r24, 0x09	; 9
    2318:	80 93 e1 01 	sts	0x01E1, r24
    231c:	ae c0       	rjmp	.+348    	; 0x247a <main+0xdee>
    231e:	50 90 da 01 	lds	r5, 0x01DA
    2322:	91 e0       	ldi	r25, 0x01	; 1
    2324:	59 12       	cpse	r5, r25
    2326:	a9 c0       	rjmp	.+338    	; 0x247a <main+0xdee>
    2328:	81 e0       	ldi	r24, 0x01	; 1
    232a:	0e 94 59 01 	call	0x2b2	; 0x2b2 <debounce>
    232e:	e0 91 92 01 	lds	r30, 0x0192
    2332:	f0 91 93 01 	lds	r31, 0x0193
    2336:	80 81       	ld	r24, Z
    2338:	83 35       	cpi	r24, 0x53	; 83
    233a:	79 f0       	breq	.+30     	; 0x235a <main+0xcce>
    233c:	38 f4       	brcc	.+14     	; 0x234c <main+0xcc0>
    233e:	8b 34       	cpi	r24, 0x4B	; 75
    2340:	09 f4       	brne	.+2      	; 0x2344 <main+0xcb8>
    2342:	5e c0       	rjmp	.+188    	; 0x2400 <main+0xd74>
    2344:	82 35       	cpi	r24, 0x52	; 82
    2346:	09 f0       	breq	.+2      	; 0x234a <main+0xcbe>
    2348:	98 c0       	rjmp	.+304    	; 0x247a <main+0xdee>
    234a:	46 c0       	rjmp	.+140    	; 0x23d8 <main+0xd4c>
    234c:	86 35       	cpi	r24, 0x56	; 86
    234e:	09 f4       	brne	.+2      	; 0x2352 <main+0xcc6>
    2350:	4e c0       	rjmp	.+156    	; 0x23ee <main+0xd62>
    2352:	87 35       	cpi	r24, 0x57	; 87
    2354:	09 f0       	breq	.+2      	; 0x2358 <main+0xccc>
    2356:	91 c0       	rjmp	.+290    	; 0x247a <main+0xdee>
    2358:	17 c0       	rjmp	.+46     	; 0x2388 <main+0xcfc>
    235a:	40 91 9e 01 	lds	r20, 0x019E
    235e:	50 91 9f 01 	lds	r21, 0x019F
    2362:	60 91 a0 01 	lds	r22, 0x01A0
    2366:	70 91 a1 01 	lds	r23, 0x01A1
    236a:	40 56       	subi	r20, 0x60	; 96
    236c:	50 4f       	sbci	r21, 0xF0	; 240
    236e:	6f 4f       	sbci	r22, 0xFF	; 255
    2370:	7f 4f       	sbci	r23, 0xFF	; 255
    2372:	40 93 ef 01 	sts	0x01EF, r20
    2376:	50 93 f0 01 	sts	0x01F0, r21
    237a:	60 93 f1 01 	sts	0x01F1, r22
    237e:	70 93 f2 01 	sts	0x01F2, r23
    2382:	b0 92 b3 01 	sts	0x01B3, r11
    2386:	2c c0       	rjmp	.+88     	; 0x23e0 <main+0xd54>
    2388:	a1 e0       	ldi	r26, 0x01	; 1
    238a:	a0 93 e1 01 	sts	0x01E1, r26
    238e:	80 91 a3 01 	lds	r24, 0x01A3
    2392:	80 93 b3 01 	sts	0x01B3, r24
    2396:	80 91 01 02 	lds	r24, 0x0201
    239a:	1f 92       	push	r1
    239c:	8f 93       	push	r24
    239e:	7f 92       	push	r7
    23a0:	6f 92       	push	r6
    23a2:	80 91 d4 01 	lds	r24, 0x01D4
    23a6:	8f 93       	push	r24
    23a8:	80 91 d3 01 	lds	r24, 0x01D3
    23ac:	8f 93       	push	r24
    23ae:	0e 94 99 19 	call	0x3332	; 0x3332 <sprintf>
    23b2:	60 91 cd 01 	lds	r22, 0x01CD
    23b6:	70 91 ce 01 	lds	r23, 0x01CE
    23ba:	40 91 01 02 	lds	r20, 0x0201
    23be:	80 91 d3 01 	lds	r24, 0x01D3
    23c2:	90 91 d4 01 	lds	r25, 0x01D4
    23c6:	0e 94 da 02 	call	0x5b4	; 0x5b4 <announce>
    23ca:	0f 90       	pop	r0
    23cc:	0f 90       	pop	r0
    23ce:	0f 90       	pop	r0
    23d0:	0f 90       	pop	r0
    23d2:	0f 90       	pop	r0
    23d4:	0f 90       	pop	r0
    23d6:	51 c0       	rjmp	.+162    	; 0x247a <main+0xdee>
    23d8:	10 92 e1 01 	sts	0x01E1, r1
    23dc:	a0 92 b3 01 	sts	0x01B3, r10
    23e0:	40 91 01 02 	lds	r20, 0x0201
    23e4:	64 e8       	ldi	r22, 0x84	; 132
    23e6:	73 e0       	ldi	r23, 0x03	; 3
    23e8:	82 e3       	ldi	r24, 0x32	; 50
    23ea:	91 e0       	ldi	r25, 0x01	; 1
    23ec:	44 c0       	rjmp	.+136    	; 0x2476 <main+0xdea>
    23ee:	50 92 e1 01 	sts	0x01E1, r5
    23f2:	80 91 a3 01 	lds	r24, 0x01A3
    23f6:	80 93 b3 01 	sts	0x01B3, r24
    23fa:	0e 94 3a 03 	call	0x674	; 0x674 <read_voltage>
    23fe:	3d c0       	rjmp	.+122    	; 0x247a <main+0xdee>
    2400:	80 91 a3 01 	lds	r24, 0x01A3
    2404:	81 11       	cpse	r24, r1
    2406:	15 c0       	rjmp	.+42     	; 0x2432 <main+0xda6>
    2408:	b1 e0       	ldi	r27, 0x01	; 1
    240a:	b0 93 a3 01 	sts	0x01A3, r27
    240e:	b0 93 e1 01 	sts	0x01E1, r27
    2412:	b0 93 b3 01 	sts	0x01B3, r27
    2416:	f9 99       	sbic	0x1f, 1	; 31
    2418:	fe cf       	rjmp	.-4      	; 0x2416 <main+0xd8a>
    241a:	60 e0       	ldi	r22, 0x00	; 0
    241c:	86 e5       	ldi	r24, 0x56	; 86
    241e:	90 e0       	ldi	r25, 0x00	; 0
    2420:	0e 94 c2 1b 	call	0x3784	; 0x3784 <__eewr_byte_m328p>
    2424:	40 91 01 02 	lds	r20, 0x0201
    2428:	64 e8       	ldi	r22, 0x84	; 132
    242a:	73 e0       	ldi	r23, 0x03	; 3
    242c:	8c e2       	ldi	r24, 0x2C	; 44
    242e:	91 e0       	ldi	r25, 0x01	; 1
    2430:	22 c0       	rjmp	.+68     	; 0x2476 <main+0xdea>
    2432:	10 92 a3 01 	sts	0x01A3, r1
    2436:	e1 e0       	ldi	r30, 0x01	; 1
    2438:	e0 93 e1 01 	sts	0x01E1, r30
    243c:	10 92 b3 01 	sts	0x01B3, r1
    2440:	f9 99       	sbic	0x1f, 1	; 31
    2442:	fe cf       	rjmp	.-4      	; 0x2440 <main+0xdb4>
    2444:	61 e0       	ldi	r22, 0x01	; 1
    2446:	86 e5       	ldi	r24, 0x56	; 86
    2448:	90 e0       	ldi	r25, 0x00	; 0
    244a:	0e 94 c2 1b 	call	0x3784	; 0x3784 <__eewr_byte_m328p>
    244e:	40 91 01 02 	lds	r20, 0x0201
    2452:	64 e8       	ldi	r22, 0x84	; 132
    2454:	73 e0       	ldi	r23, 0x03	; 3
    2456:	82 e4       	ldi	r24, 0x42	; 66
    2458:	91 e0       	ldi	r25, 0x01	; 1
    245a:	0d c0       	rjmp	.+26     	; 0x2476 <main+0xdea>
    245c:	f1 e0       	ldi	r31, 0x01	; 1
    245e:	f0 93 e1 01 	sts	0x01E1, r31
    2462:	80 91 a3 01 	lds	r24, 0x01A3
    2466:	80 93 b3 01 	sts	0x01B3, r24
    246a:	40 91 01 02 	lds	r20, 0x0201
    246e:	60 e9       	ldi	r22, 0x90	; 144
    2470:	71 e0       	ldi	r23, 0x01	; 1
    2472:	84 e3       	ldi	r24, 0x34	; 52
    2474:	91 e0       	ldi	r25, 0x01	; 1
    2476:	0e 94 da 02 	call	0x5b4	; 0x5b4 <announce>
    247a:	80 91 d3 01 	lds	r24, 0x01D3
    247e:	90 91 d4 01 	lds	r25, 0x01D4
    2482:	0e 94 dc 18 	call	0x31b8	; 0x31b8 <free>
    2486:	49 c9       	rjmp	.-3438   	; 0x171a <main+0x8e>
    2488:	21 e0       	ldi	r18, 0x01	; 1
    248a:	20 93 e1 01 	sts	0x01E1, r18
    248e:	80 91 a3 01 	lds	r24, 0x01A3
    2492:	80 93 b3 01 	sts	0x01B3, r24
    2496:	41 c9       	rjmp	.-3454   	; 0x171a <main+0x8e>
    2498:	80 91 9e 01 	lds	r24, 0x019E
    249c:	90 91 9f 01 	lds	r25, 0x019F
    24a0:	a0 91 a0 01 	lds	r26, 0x01A0
    24a4:	b0 91 a1 01 	lds	r27, 0x01A1
    24a8:	40 91 ef 01 	lds	r20, 0x01EF
    24ac:	50 91 f0 01 	lds	r21, 0x01F0
    24b0:	60 91 f1 01 	lds	r22, 0x01F1
    24b4:	70 91 f2 01 	lds	r23, 0x01F2
    24b8:	84 17       	cp	r24, r20
    24ba:	95 07       	cpc	r25, r21
    24bc:	a6 07       	cpc	r26, r22
    24be:	b7 07       	cpc	r27, r23
    24c0:	e8 f5       	brcc	.+122    	; 0x253c <main+0xeb0>
    24c2:	80 91 dc 01 	lds	r24, 0x01DC
    24c6:	81 30       	cpi	r24, 0x01	; 1
    24c8:	31 f4       	brne	.+12     	; 0x24d6 <main+0xe4a>
    24ca:	80 91 01 02 	lds	r24, 0x0201
    24ce:	88 32       	cpi	r24, 0x28	; 40
    24d0:	70 f4       	brcc	.+28     	; 0x24ee <main+0xe62>
    24d2:	8f 5f       	subi	r24, 0xFF	; 255
    24d4:	0a c0       	rjmp	.+20     	; 0x24ea <main+0xe5e>
    24d6:	80 91 da 01 	lds	r24, 0x01DA
    24da:	81 30       	cpi	r24, 0x01	; 1
    24dc:	09 f0       	breq	.+2      	; 0x24e0 <main+0xe54>
    24de:	1d c9       	rjmp	.-3526   	; 0x171a <main+0x8e>
    24e0:	80 91 01 02 	lds	r24, 0x0201
    24e4:	86 30       	cpi	r24, 0x06	; 6
    24e6:	18 f0       	brcs	.+6      	; 0x24ee <main+0xe62>
    24e8:	81 50       	subi	r24, 0x01	; 1
    24ea:	80 93 01 02 	sts	0x0201, r24
    24ee:	e0 91 01 02 	lds	r30, 0x0201
    24f2:	6e 2f       	mov	r22, r30
    24f4:	c4 01       	movw	r24, r8
    24f6:	70 e0       	ldi	r23, 0x00	; 0
    24f8:	0e 94 ff 17 	call	0x2ffe	; 0x2ffe <__divmodhi4>
    24fc:	70 93 ae 01 	sts	0x01AE, r23
    2500:	60 93 ad 01 	sts	0x01AD, r22
    2504:	80 91 9e 01 	lds	r24, 0x019E
    2508:	90 91 9f 01 	lds	r25, 0x019F
    250c:	a0 91 a0 01 	lds	r26, 0x01A0
    2510:	b0 91 a1 01 	lds	r27, 0x01A1
    2514:	80 56       	subi	r24, 0x60	; 96
    2516:	90 4f       	sbci	r25, 0xF0	; 240
    2518:	af 4f       	sbci	r26, 0xFF	; 255
    251a:	bf 4f       	sbci	r27, 0xFF	; 255
    251c:	80 93 ef 01 	sts	0x01EF, r24
    2520:	90 93 f0 01 	sts	0x01F0, r25
    2524:	a0 93 f1 01 	sts	0x01F1, r26
    2528:	b0 93 f2 01 	sts	0x01F2, r27
    252c:	60 91 cd 01 	lds	r22, 0x01CD
    2530:	70 91 ce 01 	lds	r23, 0x01CE
    2534:	4e 2f       	mov	r20, r30
    2536:	84 e4       	ldi	r24, 0x44	; 68
    2538:	91 e0       	ldi	r25, 0x01	; 1
    253a:	ff c4       	rjmp	.+2558   	; 0x2f3a <main+0x18ae>
    253c:	f9 99       	sbic	0x1f, 1	; 31
    253e:	fe cf       	rjmp	.-4      	; 0x253c <main+0xeb0>
    2540:	60 91 01 02 	lds	r22, 0x0201
    2544:	87 e5       	ldi	r24, 0x57	; 87
    2546:	90 e0       	ldi	r25, 0x00	; 0
    2548:	0e 94 c2 1b 	call	0x3784	; 0x3784 <__eewr_byte_m328p>
    254c:	31 e0       	ldi	r19, 0x01	; 1
    254e:	30 93 e1 01 	sts	0x01E1, r19
    2552:	80 91 a3 01 	lds	r24, 0x01A3
    2556:	80 93 b3 01 	sts	0x01B3, r24
    255a:	80 91 01 02 	lds	r24, 0x0201
    255e:	1f 92       	push	r1
    2560:	8f 93       	push	r24
    2562:	7f 92       	push	r7
    2564:	6f 92       	push	r6
    2566:	80 91 d4 01 	lds	r24, 0x01D4
    256a:	8f 93       	push	r24
    256c:	80 91 d3 01 	lds	r24, 0x01D3
    2570:	8f 93       	push	r24
    2572:	0e 94 99 19 	call	0x3332	; 0x3332 <sprintf>
    2576:	60 91 cd 01 	lds	r22, 0x01CD
    257a:	70 91 ce 01 	lds	r23, 0x01CE
    257e:	40 91 01 02 	lds	r20, 0x0201
    2582:	80 91 d3 01 	lds	r24, 0x01D3
    2586:	90 91 d4 01 	lds	r25, 0x01D4
    258a:	0e 94 da 02 	call	0x5b4	; 0x5b4 <announce>
    258e:	0f 90       	pop	r0
    2590:	0f 90       	pop	r0
    2592:	0f 90       	pop	r0
    2594:	0f 90       	pop	r0
    2596:	0f 90       	pop	r0
    2598:	0f 90       	pop	r0
    259a:	bf c8       	rjmp	.-3714   	; 0x171a <main+0x8e>
    259c:	80 91 f7 01 	lds	r24, 0x01F7
    25a0:	81 30       	cpi	r24, 0x01	; 1
    25a2:	61 f0       	breq	.+24     	; 0x25bc <main+0xf30>
    25a4:	80 91 d5 01 	lds	r24, 0x01D5
    25a8:	81 30       	cpi	r24, 0x01	; 1
    25aa:	41 f0       	breq	.+16     	; 0x25bc <main+0xf30>
    25ac:	80 91 dc 01 	lds	r24, 0x01DC
    25b0:	81 30       	cpi	r24, 0x01	; 1
    25b2:	21 f0       	breq	.+8      	; 0x25bc <main+0xf30>
    25b4:	80 91 da 01 	lds	r24, 0x01DA
    25b8:	81 30       	cpi	r24, 0x01	; 1
    25ba:	d1 f5       	brne	.+116    	; 0x2630 <main+0xfa4>
    25bc:	61 e4       	ldi	r22, 0x41	; 65
    25be:	71 e0       	ldi	r23, 0x01	; 1
    25c0:	80 91 06 02 	lds	r24, 0x0206
    25c4:	90 91 07 02 	lds	r25, 0x0207
    25c8:	0e 94 78 19 	call	0x32f0	; 0x32f0 <strcpy>
    25cc:	80 91 06 02 	lds	r24, 0x0206
    25d0:	90 91 07 02 	lds	r25, 0x0207
    25d4:	90 93 90 01 	sts	0x0190, r25
    25d8:	80 93 8f 01 	sts	0x018F, r24
    25dc:	10 92 91 01 	sts	0x0191, r1
    25e0:	40 91 9e 01 	lds	r20, 0x019E
    25e4:	50 91 9f 01 	lds	r21, 0x019F
    25e8:	60 91 a0 01 	lds	r22, 0x01A0
    25ec:	70 91 a1 01 	lds	r23, 0x01A1
    25f0:	40 93 f3 01 	sts	0x01F3, r20
    25f4:	50 93 f4 01 	sts	0x01F4, r21
    25f8:	60 93 f5 01 	sts	0x01F5, r22
    25fc:	70 93 f6 01 	sts	0x01F6, r23
    2600:	80 91 cb 01 	lds	r24, 0x01CB
    2604:	80 93 b3 01 	sts	0x01B3, r24
    2608:	80 91 ac 01 	lds	r24, 0x01AC
    260c:	80 93 e1 01 	sts	0x01E1, r24
    2610:	40 91 c7 01 	lds	r20, 0x01C7
    2614:	50 91 c8 01 	lds	r21, 0x01C8
    2618:	60 91 c9 01 	lds	r22, 0x01C9
    261c:	70 91 ca 01 	lds	r23, 0x01CA
    2620:	40 93 ef 01 	sts	0x01EF, r20
    2624:	50 93 f0 01 	sts	0x01F0, r21
    2628:	60 93 f1 01 	sts	0x01F1, r22
    262c:	70 93 f2 01 	sts	0x01F2, r23
    2630:	80 91 e1 01 	lds	r24, 0x01E1
    2634:	84 30       	cpi	r24, 0x04	; 4
    2636:	38 f4       	brcc	.+14     	; 0x2646 <main+0xfba>
    2638:	82 30       	cpi	r24, 0x02	; 2
    263a:	08 f0       	brcs	.+2      	; 0x263e <main+0xfb2>
    263c:	15 c1       	rjmp	.+554    	; 0x2868 <main+0x11dc>
    263e:	81 30       	cpi	r24, 0x01	; 1
    2640:	09 f0       	breq	.+2      	; 0x2644 <main+0xfb8>
    2642:	6b c8       	rjmp	.-3882   	; 0x171a <main+0x8e>
    2644:	04 c0       	rjmp	.+8      	; 0x264e <main+0xfc2>
    2646:	87 30       	cpi	r24, 0x07	; 7
    2648:	08 f0       	brcs	.+2      	; 0x264c <main+0xfc0>
    264a:	67 c8       	rjmp	.-3890   	; 0x171a <main+0x8e>
    264c:	45 c1       	rjmp	.+650    	; 0x28d8 <main+0x124c>
    264e:	a0 91 8f 01 	lds	r26, 0x018F
    2652:	b0 91 90 01 	lds	r27, 0x0190
    2656:	20 91 06 02 	lds	r18, 0x0206
    265a:	30 91 07 02 	lds	r19, 0x0207
    265e:	a2 17       	cp	r26, r18
    2660:	b3 07       	cpc	r27, r19
    2662:	59 f4       	brne	.+22     	; 0x267a <main+0xfee>
    2664:	80 91 91 01 	lds	r24, 0x0191
    2668:	81 11       	cpse	r24, r1
    266a:	07 c0       	rjmp	.+14     	; 0x267a <main+0xfee>
    266c:	ec 91       	ld	r30, X
    266e:	f0 e0       	ldi	r31, 0x00	; 0
    2670:	e8 5b       	subi	r30, 0xB8	; 184
    2672:	fe 4f       	sbci	r31, 0xFE	; 254
    2674:	e4 91       	lpm	r30, Z+
    2676:	e0 93 91 01 	sts	0x0191, r30
    267a:	90 91 91 01 	lds	r25, 0x0191
    267e:	99 23       	and	r25, r25
    2680:	09 f4       	brne	.+2      	; 0x2684 <main+0xff8>
    2682:	b9 c0       	rjmp	.+370    	; 0x27f6 <main+0x116a>
    2684:	20 91 ad 01 	lds	r18, 0x01AD
    2688:	30 91 ae 01 	lds	r19, 0x01AE
    268c:	90 38       	cpi	r25, 0x80	; 128
    268e:	21 f0       	breq	.+8      	; 0x2698 <main+0x100c>
    2690:	9f 3f       	cpi	r25, 0xFF	; 255
    2692:	09 f0       	breq	.+2      	; 0x2696 <main+0x100a>
    2694:	3c c0       	rjmp	.+120    	; 0x270e <main+0x1082>
    2696:	0e c0       	rjmp	.+28     	; 0x26b4 <main+0x1028>
    2698:	40 91 9e 01 	lds	r20, 0x019E
    269c:	50 91 9f 01 	lds	r21, 0x019F
    26a0:	60 91 a0 01 	lds	r22, 0x01A0
    26a4:	70 91 a1 01 	lds	r23, 0x01A1
    26a8:	c9 01       	movw	r24, r18
    26aa:	88 0f       	add	r24, r24
    26ac:	99 1f       	adc	r25, r25
    26ae:	82 0f       	add	r24, r18
    26b0:	93 1f       	adc	r25, r19
    26b2:	0d c0       	rjmp	.+26     	; 0x26ce <main+0x1042>
    26b4:	40 91 9e 01 	lds	r20, 0x019E
    26b8:	50 91 9f 01 	lds	r21, 0x019F
    26bc:	60 91 a0 01 	lds	r22, 0x01A0
    26c0:	70 91 a1 01 	lds	r23, 0x01A1
    26c4:	a2 9e       	mul	r10, r18
    26c6:	c0 01       	movw	r24, r0
    26c8:	a3 9e       	mul	r10, r19
    26ca:	90 0d       	add	r25, r0
    26cc:	11 24       	eor	r1, r1
    26ce:	48 0f       	add	r20, r24
    26d0:	59 1f       	adc	r21, r25
    26d2:	61 1d       	adc	r22, r1
    26d4:	71 1d       	adc	r23, r1
    26d6:	40 93 ef 01 	sts	0x01EF, r20
    26da:	50 93 f0 01 	sts	0x01F0, r21
    26de:	60 93 f1 01 	sts	0x01F1, r22
    26e2:	70 93 f2 01 	sts	0x01F2, r23
    26e6:	b0 92 e1 01 	sts	0x01E1, r11
    26ea:	cd 01       	movw	r24, r26
    26ec:	01 96       	adiw	r24, 0x01	; 1
    26ee:	90 93 90 01 	sts	0x0190, r25
    26f2:	80 93 8f 01 	sts	0x018F, r24
    26f6:	11 96       	adiw	r26, 0x01	; 1
    26f8:	ec 91       	ld	r30, X
    26fa:	e1 11       	cpse	r30, r1
    26fc:	03 c0       	rjmp	.+6      	; 0x2704 <main+0x1078>
    26fe:	10 92 91 01 	sts	0x0191, r1
    2702:	0b c8       	rjmp	.-4074   	; 0x171a <main+0x8e>
    2704:	f0 e0       	ldi	r31, 0x00	; 0
    2706:	e8 5b       	subi	r30, 0xB8	; 184
    2708:	fe 4f       	sbci	r31, 0xFE	; 254
    270a:	e4 91       	lpm	r30, Z+
    270c:	4a cc       	rjmp	.-1900   	; 0x1fa2 <main+0x916>
    270e:	40 91 9e 01 	lds	r20, 0x019E
    2712:	50 91 9f 01 	lds	r21, 0x019F
    2716:	60 91 a0 01 	lds	r22, 0x01A0
    271a:	70 91 a1 01 	lds	r23, 0x01A1
    271e:	97 ff       	sbrs	r25, 7
    2720:	21 c0       	rjmp	.+66     	; 0x2764 <main+0x10d8>
    2722:	f9 01       	movw	r30, r18
    2724:	ee 0f       	add	r30, r30
    2726:	ff 1f       	adc	r31, r31
    2728:	e2 0f       	add	r30, r18
    272a:	f3 1f       	adc	r31, r19
    272c:	4e 0f       	add	r20, r30
    272e:	5f 1f       	adc	r21, r31
    2730:	61 1d       	adc	r22, r1
    2732:	71 1d       	adc	r23, r1
    2734:	40 93 ef 01 	sts	0x01EF, r20
    2738:	50 93 f0 01 	sts	0x01F0, r21
    273c:	60 93 f1 01 	sts	0x01F1, r22
    2740:	70 93 f2 01 	sts	0x01F2, r23
    2744:	10 93 e1 01 	sts	0x01E1, r17
    2748:	20 90 9e 01 	lds	r2, 0x019E
    274c:	30 90 9f 01 	lds	r3, 0x019F
    2750:	40 90 a0 01 	lds	r4, 0x01A0
    2754:	50 90 a1 01 	lds	r5, 0x01A1
    2758:	82 e0       	ldi	r24, 0x02	; 2
    275a:	28 0e       	add	r2, r24
    275c:	31 1c       	adc	r3, r1
    275e:	41 1c       	adc	r4, r1
    2760:	51 1c       	adc	r5, r1
    2762:	1c c0       	rjmp	.+56     	; 0x279c <main+0x1110>
    2764:	42 0f       	add	r20, r18
    2766:	53 1f       	adc	r21, r19
    2768:	61 1d       	adc	r22, r1
    276a:	71 1d       	adc	r23, r1
    276c:	40 93 ef 01 	sts	0x01EF, r20
    2770:	50 93 f0 01 	sts	0x01F0, r21
    2774:	60 93 f1 01 	sts	0x01F1, r22
    2778:	70 93 f2 01 	sts	0x01F2, r23
    277c:	a2 e0       	ldi	r26, 0x02	; 2
    277e:	a0 93 e1 01 	sts	0x01E1, r26
    2782:	20 90 9e 01 	lds	r2, 0x019E
    2786:	30 90 9f 01 	lds	r3, 0x019F
    278a:	40 90 a0 01 	lds	r4, 0x01A0
    278e:	50 90 a1 01 	lds	r5, 0x01A1
    2792:	b2 e0       	ldi	r27, 0x02	; 2
    2794:	2b 0e       	add	r2, r27
    2796:	31 1c       	adc	r3, r1
    2798:	41 1c       	adc	r4, r1
    279a:	51 1c       	adc	r5, r1
    279c:	20 92 b9 01 	sts	0x01B9, r2
    27a0:	30 92 ba 01 	sts	0x01BA, r3
    27a4:	40 92 bb 01 	sts	0x01BB, r4
    27a8:	50 92 bc 01 	sts	0x01BC, r5
    27ac:	40 93 08 02 	sts	0x0208, r20
    27b0:	50 93 09 02 	sts	0x0209, r21
    27b4:	60 93 0a 02 	sts	0x020A, r22
    27b8:	70 93 0b 02 	sts	0x020B, r23
    27bc:	40 91 9e 01 	lds	r20, 0x019E
    27c0:	50 91 9f 01 	lds	r21, 0x019F
    27c4:	60 91 a0 01 	lds	r22, 0x01A0
    27c8:	70 91 a1 01 	lds	r23, 0x01A1
    27cc:	40 93 02 02 	sts	0x0202, r20
    27d0:	50 93 03 02 	sts	0x0203, r21
    27d4:	60 93 04 02 	sts	0x0204, r22
    27d8:	70 93 05 02 	sts	0x0205, r23
    27dc:	c0 92 f3 01 	sts	0x01F3, r12
    27e0:	d0 92 f4 01 	sts	0x01F4, r13
    27e4:	e0 92 f5 01 	sts	0x01F5, r14
    27e8:	f0 92 f6 01 	sts	0x01F6, r15
    27ec:	99 0f       	add	r25, r25
    27ee:	90 93 91 01 	sts	0x0191, r25
    27f2:	0c 94 8d 0b 	jmp	0x171a	; 0x171a <main+0x8e>
    27f6:	61 e4       	ldi	r22, 0x41	; 65
    27f8:	71 e0       	ldi	r23, 0x01	; 1
    27fa:	c9 01       	movw	r24, r18
    27fc:	0e 94 78 19 	call	0x32f0	; 0x32f0 <strcpy>
    2800:	80 91 06 02 	lds	r24, 0x0206
    2804:	90 91 07 02 	lds	r25, 0x0207
    2808:	90 93 90 01 	sts	0x0190, r25
    280c:	80 93 8f 01 	sts	0x018F, r24
    2810:	10 92 91 01 	sts	0x0191, r1
    2814:	40 91 9e 01 	lds	r20, 0x019E
    2818:	50 91 9f 01 	lds	r21, 0x019F
    281c:	60 91 a0 01 	lds	r22, 0x01A0
    2820:	70 91 a1 01 	lds	r23, 0x01A1
    2824:	40 93 f3 01 	sts	0x01F3, r20
    2828:	50 93 f4 01 	sts	0x01F4, r21
    282c:	60 93 f5 01 	sts	0x01F5, r22
    2830:	70 93 f6 01 	sts	0x01F6, r23
    2834:	80 91 cb 01 	lds	r24, 0x01CB
    2838:	80 93 b3 01 	sts	0x01B3, r24
    283c:	80 91 ac 01 	lds	r24, 0x01AC
    2840:	80 93 e1 01 	sts	0x01E1, r24
    2844:	40 91 c7 01 	lds	r20, 0x01C7
    2848:	50 91 c8 01 	lds	r21, 0x01C8
    284c:	60 91 c9 01 	lds	r22, 0x01C9
    2850:	70 91 ca 01 	lds	r23, 0x01CA
    2854:	40 93 ef 01 	sts	0x01EF, r20
    2858:	50 93 f0 01 	sts	0x01F0, r21
    285c:	60 93 f1 01 	sts	0x01F1, r22
    2860:	70 93 f2 01 	sts	0x01F2, r23
    2864:	0c 94 8d 0b 	jmp	0x171a	; 0x171a <main+0x8e>
    2868:	80 91 9e 01 	lds	r24, 0x019E
    286c:	90 91 9f 01 	lds	r25, 0x019F
    2870:	a0 91 a0 01 	lds	r26, 0x01A0
    2874:	b0 91 a1 01 	lds	r27, 0x01A1
    2878:	40 91 ef 01 	lds	r20, 0x01EF
    287c:	50 91 f0 01 	lds	r21, 0x01F0
    2880:	60 91 f1 01 	lds	r22, 0x01F1
    2884:	70 91 f2 01 	lds	r23, 0x01F2
    2888:	48 17       	cp	r20, r24
    288a:	59 07       	cpc	r21, r25
    288c:	6a 07       	cpc	r22, r26
    288e:	7b 07       	cpc	r23, r27
    2890:	d0 f4       	brcc	.+52     	; 0x28c6 <main+0x123a>
    2892:	40 91 9e 01 	lds	r20, 0x019E
    2896:	50 91 9f 01 	lds	r21, 0x019F
    289a:	60 91 a0 01 	lds	r22, 0x01A0
    289e:	70 91 a1 01 	lds	r23, 0x01A1
    28a2:	80 91 ad 01 	lds	r24, 0x01AD
    28a6:	90 91 ae 01 	lds	r25, 0x01AE
    28aa:	48 0f       	add	r20, r24
    28ac:	59 1f       	adc	r21, r25
    28ae:	61 1d       	adc	r22, r1
    28b0:	71 1d       	adc	r23, r1
    28b2:	40 93 ef 01 	sts	0x01EF, r20
    28b6:	50 93 f0 01 	sts	0x01F0, r21
    28ba:	60 93 f1 01 	sts	0x01F1, r22
    28be:	70 93 f2 01 	sts	0x01F2, r23
    28c2:	00 93 e1 01 	sts	0x01E1, r16
    28c6:	e1 e0       	ldi	r30, 0x01	; 1
    28c8:	e0 93 49 01 	sts	0x0149, r30
    28cc:	e0 93 4b 01 	sts	0x014B, r30
    28d0:	e0 93 4a 01 	sts	0x014A, r30
    28d4:	0c 94 8d 0b 	jmp	0x171a	; 0x171a <main+0x8e>
    28d8:	80 91 9e 01 	lds	r24, 0x019E
    28dc:	90 91 9f 01 	lds	r25, 0x019F
    28e0:	a0 91 a0 01 	lds	r26, 0x01A0
    28e4:	b0 91 a1 01 	lds	r27, 0x01A1
    28e8:	40 91 ef 01 	lds	r20, 0x01EF
    28ec:	50 91 f0 01 	lds	r21, 0x01F0
    28f0:	60 91 f1 01 	lds	r22, 0x01F1
    28f4:	70 91 f2 01 	lds	r23, 0x01F2
    28f8:	48 17       	cp	r20, r24
    28fa:	59 07       	cpc	r21, r25
    28fc:	6a 07       	cpc	r22, r26
    28fe:	7b 07       	cpc	r23, r27
    2900:	18 f4       	brcc	.+6      	; 0x2908 <main+0x127c>
    2902:	f1 e0       	ldi	r31, 0x01	; 1
    2904:	f0 93 e1 01 	sts	0x01E1, r31
    2908:	10 92 49 01 	sts	0x0149, r1
    290c:	10 92 4b 01 	sts	0x014B, r1
    2910:	21 e0       	ldi	r18, 0x01	; 1
    2912:	20 93 4a 01 	sts	0x014A, r18
    2916:	0c 94 8d 0b 	jmp	0x171a	; 0x171a <main+0x8e>
    291a:	80 91 e1 01 	lds	r24, 0x01E1
    291e:	83 30       	cpi	r24, 0x03	; 3
    2920:	09 f4       	brne	.+2      	; 0x2924 <main+0x1298>
    2922:	b0 c1       	rjmp	.+864    	; 0x2c84 <main+0x15f8>
    2924:	28 f4       	brcc	.+10     	; 0x2930 <main+0x12a4>
    2926:	81 30       	cpi	r24, 0x01	; 1
    2928:	e9 f1       	breq	.+122    	; 0x29a4 <main+0x1318>
    292a:	08 f0       	brcs	.+2      	; 0x292e <main+0x12a2>
    292c:	4e c1       	rjmp	.+668    	; 0x2bca <main+0x153e>
    292e:	0b c0       	rjmp	.+22     	; 0x2946 <main+0x12ba>
    2930:	8b 30       	cpi	r24, 0x0B	; 11
    2932:	09 f4       	brne	.+2      	; 0x2936 <main+0x12aa>
    2934:	8d c2       	rjmp	.+1306   	; 0x2e50 <main+0x17c4>
    2936:	8c 30       	cpi	r24, 0x0C	; 12
    2938:	09 f4       	brne	.+2      	; 0x293c <main+0x12b0>
    293a:	d9 c2       	rjmp	.+1458   	; 0x2eee <main+0x1862>
    293c:	84 30       	cpi	r24, 0x04	; 4
    293e:	11 f0       	breq	.+4      	; 0x2944 <main+0x12b8>
    2940:	0c 94 8d 0b 	jmp	0x171a	; 0x171a <main+0x8e>
    2944:	ee c1       	rjmp	.+988    	; 0x2d22 <main+0x1696>
    2946:	40 91 9e 01 	lds	r20, 0x019E
    294a:	50 91 9f 01 	lds	r21, 0x019F
    294e:	60 91 a0 01 	lds	r22, 0x01A0
    2952:	70 91 a1 01 	lds	r23, 0x01A1
    2956:	40 93 02 02 	sts	0x0202, r20
    295a:	50 93 03 02 	sts	0x0203, r21
    295e:	60 93 04 02 	sts	0x0204, r22
    2962:	70 93 05 02 	sts	0x0205, r23
    2966:	c0 92 f3 01 	sts	0x01F3, r12
    296a:	d0 92 f4 01 	sts	0x01F4, r13
    296e:	e0 92 f5 01 	sts	0x01F5, r14
    2972:	f0 92 f6 01 	sts	0x01F6, r15
    2976:	10 92 96 01 	sts	0x0196, r1
    297a:	10 92 97 01 	sts	0x0197, r1
    297e:	c0 92 98 01 	sts	0x0198, r12
    2982:	d0 92 99 01 	sts	0x0199, r13
    2986:	e0 92 9a 01 	sts	0x019A, r14
    298a:	f0 92 9b 01 	sts	0x019B, r15
    298e:	61 e4       	ldi	r22, 0x41	; 65
    2990:	71 e0       	ldi	r23, 0x01	; 1
    2992:	85 e6       	ldi	r24, 0x65	; 101
    2994:	91 e0       	ldi	r25, 0x01	; 1
    2996:	0e 94 78 19 	call	0x32f0	; 0x32f0 <strcpy>
    299a:	31 e0       	ldi	r19, 0x01	; 1
    299c:	30 93 e1 01 	sts	0x01E1, r19
    29a0:	0c 94 8d 0b 	jmp	0x171a	; 0x171a <main+0x8e>
    29a4:	80 91 f7 01 	lds	r24, 0x01F7
    29a8:	81 30       	cpi	r24, 0x01	; 1
    29aa:	d9 f5       	brne	.+118    	; 0x2a22 <main+0x1396>
    29ac:	80 91 d5 01 	lds	r24, 0x01D5
    29b0:	81 11       	cpse	r24, r1
    29b2:	37 c0       	rjmp	.+110    	; 0x2a22 <main+0x1396>
    29b4:	81 e0       	ldi	r24, 0x01	; 1
    29b6:	80 93 ac 01 	sts	0x01AC, r24
    29ba:	92 e0       	ldi	r25, 0x02	; 2
    29bc:	90 93 e1 01 	sts	0x01E1, r25
    29c0:	80 93 b8 01 	sts	0x01B8, r24
    29c4:	40 91 9e 01 	lds	r20, 0x019E
    29c8:	50 91 9f 01 	lds	r21, 0x019F
    29cc:	60 91 a0 01 	lds	r22, 0x01A0
    29d0:	70 91 a1 01 	lds	r23, 0x01A1
    29d4:	80 91 ad 01 	lds	r24, 0x01AD
    29d8:	90 91 ae 01 	lds	r25, 0x01AE
    29dc:	48 0f       	add	r20, r24
    29de:	59 1f       	adc	r21, r25
    29e0:	61 1d       	adc	r22, r1
    29e2:	71 1d       	adc	r23, r1
    29e4:	40 93 ef 01 	sts	0x01EF, r20
    29e8:	50 93 f0 01 	sts	0x01F0, r21
    29ec:	60 93 f1 01 	sts	0x01F1, r22
    29f0:	70 93 f2 01 	sts	0x01F2, r23
    29f4:	40 91 9e 01 	lds	r20, 0x019E
    29f8:	50 91 9f 01 	lds	r21, 0x019F
    29fc:	60 91 a0 01 	lds	r22, 0x01A0
    2a00:	70 91 a1 01 	lds	r23, 0x01A1
    2a04:	48 51       	subi	r20, 0x18	; 24
    2a06:	5c 4f       	sbci	r21, 0xFC	; 252
    2a08:	6f 4f       	sbci	r22, 0xFF	; 255
    2a0a:	7f 4f       	sbci	r23, 0xFF	; 255
    2a0c:	40 93 98 01 	sts	0x0198, r20
    2a10:	50 93 99 01 	sts	0x0199, r21
    2a14:	60 93 9a 01 	sts	0x019A, r22
    2a18:	70 93 9b 01 	sts	0x019B, r23
    2a1c:	80 91 97 01 	lds	r24, 0x0197
    2a20:	50 c0       	rjmp	.+160    	; 0x2ac2 <main+0x1436>
    2a22:	80 91 d5 01 	lds	r24, 0x01D5
    2a26:	81 30       	cpi	r24, 0x01	; 1
    2a28:	09 f0       	breq	.+2      	; 0x2a2c <main+0x13a0>
    2a2a:	4d c0       	rjmp	.+154    	; 0x2ac6 <main+0x143a>
    2a2c:	90 91 f7 01 	lds	r25, 0x01F7
    2a30:	91 11       	cpse	r25, r1
    2a32:	49 c0       	rjmp	.+146    	; 0x2ac6 <main+0x143a>
    2a34:	80 93 ac 01 	sts	0x01AC, r24
    2a38:	10 93 e1 01 	sts	0x01E1, r17
    2a3c:	80 93 b8 01 	sts	0x01B8, r24
    2a40:	40 91 9e 01 	lds	r20, 0x019E
    2a44:	50 91 9f 01 	lds	r21, 0x019F
    2a48:	60 91 a0 01 	lds	r22, 0x01A0
    2a4c:	70 91 a1 01 	lds	r23, 0x01A1
    2a50:	20 91 ad 01 	lds	r18, 0x01AD
    2a54:	30 91 ae 01 	lds	r19, 0x01AE
    2a58:	c9 01       	movw	r24, r18
    2a5a:	88 0f       	add	r24, r24
    2a5c:	99 1f       	adc	r25, r25
    2a5e:	82 0f       	add	r24, r18
    2a60:	93 1f       	adc	r25, r19
    2a62:	48 0f       	add	r20, r24
    2a64:	59 1f       	adc	r21, r25
    2a66:	61 1d       	adc	r22, r1
    2a68:	71 1d       	adc	r23, r1
    2a6a:	40 93 ef 01 	sts	0x01EF, r20
    2a6e:	50 93 f0 01 	sts	0x01F0, r21
    2a72:	60 93 f1 01 	sts	0x01F1, r22
    2a76:	70 93 f2 01 	sts	0x01F2, r23
    2a7a:	40 91 9e 01 	lds	r20, 0x019E
    2a7e:	50 91 9f 01 	lds	r21, 0x019F
    2a82:	60 91 a0 01 	lds	r22, 0x01A0
    2a86:	70 91 a1 01 	lds	r23, 0x01A1
    2a8a:	48 51       	subi	r20, 0x18	; 24
    2a8c:	5c 4f       	sbci	r21, 0xFC	; 252
    2a8e:	6f 4f       	sbci	r22, 0xFF	; 255
    2a90:	7f 4f       	sbci	r23, 0xFF	; 255
    2a92:	40 93 98 01 	sts	0x0198, r20
    2a96:	50 93 99 01 	sts	0x0199, r21
    2a9a:	60 93 9a 01 	sts	0x019A, r22
    2a9e:	70 93 9b 01 	sts	0x019B, r23
    2aa2:	20 91 97 01 	lds	r18, 0x0197
    2aa6:	80 e8       	ldi	r24, 0x80	; 128
    2aa8:	90 e0       	ldi	r25, 0x00	; 0
    2aaa:	02 2e       	mov	r0, r18
    2aac:	02 c0       	rjmp	.+4      	; 0x2ab2 <main+0x1426>
    2aae:	95 95       	asr	r25
    2ab0:	87 95       	ror	r24
    2ab2:	0a 94       	dec	r0
    2ab4:	e2 f7       	brpl	.-8      	; 0x2aae <main+0x1422>
    2ab6:	90 91 96 01 	lds	r25, 0x0196
    2aba:	98 0f       	add	r25, r24
    2abc:	90 93 96 01 	sts	0x0196, r25
    2ac0:	82 2f       	mov	r24, r18
    2ac2:	8f 5f       	subi	r24, 0xFF	; 255
    2ac4:	56 c0       	rjmp	.+172    	; 0x2b72 <main+0x14e6>
    2ac6:	80 91 f7 01 	lds	r24, 0x01F7
    2aca:	81 30       	cpi	r24, 0x01	; 1
    2acc:	09 f0       	breq	.+2      	; 0x2ad0 <main+0x1444>
    2ace:	58 c0       	rjmp	.+176    	; 0x2b80 <main+0x14f4>
    2ad0:	80 91 d5 01 	lds	r24, 0x01D5
    2ad4:	81 30       	cpi	r24, 0x01	; 1
    2ad6:	09 f0       	breq	.+2      	; 0x2ada <main+0x144e>
    2ad8:	53 c0       	rjmp	.+166    	; 0x2b80 <main+0x14f4>
    2ada:	80 91 b8 01 	lds	r24, 0x01B8
    2ade:	81 30       	cpi	r24, 0x01	; 1
    2ae0:	09 f0       	breq	.+2      	; 0x2ae4 <main+0x1458>
    2ae2:	4e c0       	rjmp	.+156    	; 0x2b80 <main+0x14f4>
    2ae4:	80 93 ac 01 	sts	0x01AC, r24
    2ae8:	a2 e0       	ldi	r26, 0x02	; 2
    2aea:	a0 93 e1 01 	sts	0x01E1, r26
    2aee:	10 93 b8 01 	sts	0x01B8, r17
    2af2:	40 91 9e 01 	lds	r20, 0x019E
    2af6:	50 91 9f 01 	lds	r21, 0x019F
    2afa:	60 91 a0 01 	lds	r22, 0x01A0
    2afe:	70 91 a1 01 	lds	r23, 0x01A1
    2b02:	80 91 ad 01 	lds	r24, 0x01AD
    2b06:	90 91 ae 01 	lds	r25, 0x01AE
    2b0a:	48 0f       	add	r20, r24
    2b0c:	59 1f       	adc	r21, r25
    2b0e:	61 1d       	adc	r22, r1
    2b10:	71 1d       	adc	r23, r1
    2b12:	40 93 ef 01 	sts	0x01EF, r20
    2b16:	50 93 f0 01 	sts	0x01F0, r21
    2b1a:	60 93 f1 01 	sts	0x01F1, r22
    2b1e:	70 93 f2 01 	sts	0x01F2, r23
    2b22:	40 91 9e 01 	lds	r20, 0x019E
    2b26:	50 91 9f 01 	lds	r21, 0x019F
    2b2a:	60 91 a0 01 	lds	r22, 0x01A0
    2b2e:	70 91 a1 01 	lds	r23, 0x01A1
    2b32:	48 51       	subi	r20, 0x18	; 24
    2b34:	5c 4f       	sbci	r21, 0xFC	; 252
    2b36:	6f 4f       	sbci	r22, 0xFF	; 255
    2b38:	7f 4f       	sbci	r23, 0xFF	; 255
    2b3a:	40 93 98 01 	sts	0x0198, r20
    2b3e:	50 93 99 01 	sts	0x0199, r21
    2b42:	60 93 9a 01 	sts	0x019A, r22
    2b46:	70 93 9b 01 	sts	0x019B, r23
    2b4a:	40 91 97 01 	lds	r20, 0x0197
    2b4e:	24 2f       	mov	r18, r20
    2b50:	30 e0       	ldi	r19, 0x00	; 0
    2b52:	2f 5f       	subi	r18, 0xFF	; 255
    2b54:	3f 4f       	sbci	r19, 0xFF	; 255
    2b56:	80 e8       	ldi	r24, 0x80	; 128
    2b58:	90 e0       	ldi	r25, 0x00	; 0
    2b5a:	02 c0       	rjmp	.+4      	; 0x2b60 <main+0x14d4>
    2b5c:	95 95       	asr	r25
    2b5e:	87 95       	ror	r24
    2b60:	2a 95       	dec	r18
    2b62:	e2 f7       	brpl	.-8      	; 0x2b5c <main+0x14d0>
    2b64:	90 91 96 01 	lds	r25, 0x0196
    2b68:	98 0f       	add	r25, r24
    2b6a:	90 93 96 01 	sts	0x0196, r25
    2b6e:	84 2f       	mov	r24, r20
    2b70:	8e 5f       	subi	r24, 0xFE	; 254
    2b72:	80 93 97 01 	sts	0x0197, r24
    2b76:	86 30       	cpi	r24, 0x06	; 6
    2b78:	18 f0       	brcs	.+6      	; 0x2b80 <main+0x14f4>
    2b7a:	8b e0       	ldi	r24, 0x0B	; 11
    2b7c:	80 93 b8 01 	sts	0x01B8, r24
    2b80:	80 91 9e 01 	lds	r24, 0x019E
    2b84:	90 91 9f 01 	lds	r25, 0x019F
    2b88:	a0 91 a0 01 	lds	r26, 0x01A0
    2b8c:	b0 91 a1 01 	lds	r27, 0x01A1
    2b90:	40 91 98 01 	lds	r20, 0x0198
    2b94:	50 91 99 01 	lds	r21, 0x0199
    2b98:	60 91 9a 01 	lds	r22, 0x019A
    2b9c:	70 91 9b 01 	lds	r23, 0x019B
    2ba0:	48 17       	cp	r20, r24
    2ba2:	59 07       	cpc	r21, r25
    2ba4:	6a 07       	cpc	r22, r26
    2ba6:	7b 07       	cpc	r23, r27
    2ba8:	38 f4       	brcc	.+14     	; 0x2bb8 <main+0x152c>
    2baa:	80 91 97 01 	lds	r24, 0x0197
    2bae:	88 23       	and	r24, r24
    2bb0:	19 f0       	breq	.+6      	; 0x2bb8 <main+0x152c>
    2bb2:	8b e0       	ldi	r24, 0x0B	; 11
    2bb4:	80 93 e1 01 	sts	0x01E1, r24
    2bb8:	80 91 dc 01 	lds	r24, 0x01DC
    2bbc:	81 30       	cpi	r24, 0x01	; 1
    2bbe:	09 f0       	breq	.+2      	; 0x2bc2 <main+0x1536>
    2bc0:	3e c1       	rjmp	.+636    	; 0x2e3e <main+0x17b2>
    2bc2:	8c e0       	ldi	r24, 0x0C	; 12
    2bc4:	80 93 e1 01 	sts	0x01E1, r24
    2bc8:	3a c1       	rjmp	.+628    	; 0x2e3e <main+0x17b2>
    2bca:	80 91 9e 01 	lds	r24, 0x019E
    2bce:	90 91 9f 01 	lds	r25, 0x019F
    2bd2:	a0 91 a0 01 	lds	r26, 0x01A0
    2bd6:	b0 91 a1 01 	lds	r27, 0x01A1
    2bda:	40 91 ef 01 	lds	r20, 0x01EF
    2bde:	50 91 f0 01 	lds	r21, 0x01F0
    2be2:	60 91 f1 01 	lds	r22, 0x01F1
    2be6:	70 91 f2 01 	lds	r23, 0x01F2
    2bea:	48 17       	cp	r20, r24
    2bec:	59 07       	cpc	r21, r25
    2bee:	6a 07       	cpc	r22, r26
    2bf0:	7b 07       	cpc	r23, r27
    2bf2:	e8 f4       	brcc	.+58     	; 0x2c2e <main+0x15a2>
    2bf4:	e2 e0       	ldi	r30, 0x02	; 2
    2bf6:	e0 93 ac 01 	sts	0x01AC, r30
    2bfa:	00 93 e1 01 	sts	0x01E1, r16
    2bfe:	40 91 9e 01 	lds	r20, 0x019E
    2c02:	50 91 9f 01 	lds	r21, 0x019F
    2c06:	60 91 a0 01 	lds	r22, 0x01A0
    2c0a:	70 91 a1 01 	lds	r23, 0x01A1
    2c0e:	80 91 ad 01 	lds	r24, 0x01AD
    2c12:	90 91 ae 01 	lds	r25, 0x01AE
    2c16:	48 0f       	add	r20, r24
    2c18:	59 1f       	adc	r21, r25
    2c1a:	61 1d       	adc	r22, r1
    2c1c:	71 1d       	adc	r23, r1
    2c1e:	40 93 ef 01 	sts	0x01EF, r20
    2c22:	50 93 f0 01 	sts	0x01F0, r21
    2c26:	60 93 f1 01 	sts	0x01F1, r22
    2c2a:	70 93 f2 01 	sts	0x01F2, r23
    2c2e:	80 91 d5 01 	lds	r24, 0x01D5
    2c32:	81 30       	cpi	r24, 0x01	; 1
    2c34:	f1 f4       	brne	.+60     	; 0x2c72 <main+0x15e6>
    2c36:	80 91 b8 01 	lds	r24, 0x01B8
    2c3a:	81 30       	cpi	r24, 0x01	; 1
    2c3c:	d1 f4       	brne	.+52     	; 0x2c72 <main+0x15e6>
    2c3e:	10 93 b8 01 	sts	0x01B8, r17
    2c42:	20 91 97 01 	lds	r18, 0x0197
    2c46:	80 e8       	ldi	r24, 0x80	; 128
    2c48:	90 e0       	ldi	r25, 0x00	; 0
    2c4a:	02 2e       	mov	r0, r18
    2c4c:	02 c0       	rjmp	.+4      	; 0x2c52 <main+0x15c6>
    2c4e:	95 95       	asr	r25
    2c50:	87 95       	ror	r24
    2c52:	0a 94       	dec	r0
    2c54:	e2 f7       	brpl	.-8      	; 0x2c4e <main+0x15c2>
    2c56:	90 91 96 01 	lds	r25, 0x0196
    2c5a:	98 0f       	add	r25, r24
    2c5c:	90 93 96 01 	sts	0x0196, r25
    2c60:	82 2f       	mov	r24, r18
    2c62:	8f 5f       	subi	r24, 0xFF	; 255
    2c64:	80 93 97 01 	sts	0x0197, r24
    2c68:	86 30       	cpi	r24, 0x06	; 6
    2c6a:	18 f0       	brcs	.+6      	; 0x2c72 <main+0x15e6>
    2c6c:	8b e0       	ldi	r24, 0x0B	; 11
    2c6e:	80 93 b8 01 	sts	0x01B8, r24
    2c72:	10 92 49 01 	sts	0x0149, r1
    2c76:	f1 e0       	ldi	r31, 0x01	; 1
    2c78:	f0 93 4b 01 	sts	0x014B, r31
    2c7c:	f0 93 4a 01 	sts	0x014A, r31
    2c80:	0c 94 8d 0b 	jmp	0x171a	; 0x171a <main+0x8e>
    2c84:	20 90 9e 01 	lds	r2, 0x019E
    2c88:	30 90 9f 01 	lds	r3, 0x019F
    2c8c:	40 90 a0 01 	lds	r4, 0x01A0
    2c90:	50 90 a1 01 	lds	r5, 0x01A1
    2c94:	40 91 ef 01 	lds	r20, 0x01EF
    2c98:	50 91 f0 01 	lds	r21, 0x01F0
    2c9c:	60 91 f1 01 	lds	r22, 0x01F1
    2ca0:	70 91 f2 01 	lds	r23, 0x01F2
    2ca4:	42 15       	cp	r20, r2
    2ca6:	53 05       	cpc	r21, r3
    2ca8:	64 05       	cpc	r22, r4
    2caa:	75 05       	cpc	r23, r5
    2cac:	e0 f4       	brcc	.+56     	; 0x2ce6 <main+0x165a>
    2cae:	80 93 ac 01 	sts	0x01AC, r24
    2cb2:	00 93 e1 01 	sts	0x01E1, r16
    2cb6:	40 91 9e 01 	lds	r20, 0x019E
    2cba:	50 91 9f 01 	lds	r21, 0x019F
    2cbe:	60 91 a0 01 	lds	r22, 0x01A0
    2cc2:	70 91 a1 01 	lds	r23, 0x01A1
    2cc6:	80 91 ad 01 	lds	r24, 0x01AD
    2cca:	90 91 ae 01 	lds	r25, 0x01AE
    2cce:	48 0f       	add	r20, r24
    2cd0:	59 1f       	adc	r21, r25
    2cd2:	61 1d       	adc	r22, r1
    2cd4:	71 1d       	adc	r23, r1
    2cd6:	40 93 ef 01 	sts	0x01EF, r20
    2cda:	50 93 f0 01 	sts	0x01F0, r21
    2cde:	60 93 f1 01 	sts	0x01F1, r22
    2ce2:	70 93 f2 01 	sts	0x01F2, r23
    2ce6:	80 91 f7 01 	lds	r24, 0x01F7
    2cea:	81 30       	cpi	r24, 0x01	; 1
    2cec:	89 f4       	brne	.+34     	; 0x2d10 <main+0x1684>
    2cee:	80 91 b8 01 	lds	r24, 0x01B8
    2cf2:	81 30       	cpi	r24, 0x01	; 1
    2cf4:	69 f4       	brne	.+26     	; 0x2d10 <main+0x1684>
    2cf6:	22 e0       	ldi	r18, 0x02	; 2
    2cf8:	20 93 b8 01 	sts	0x01B8, r18
    2cfc:	80 91 97 01 	lds	r24, 0x0197
    2d00:	8f 5f       	subi	r24, 0xFF	; 255
    2d02:	80 93 97 01 	sts	0x0197, r24
    2d06:	86 30       	cpi	r24, 0x06	; 6
    2d08:	18 f0       	brcs	.+6      	; 0x2d10 <main+0x1684>
    2d0a:	8b e0       	ldi	r24, 0x0B	; 11
    2d0c:	80 93 b8 01 	sts	0x01B8, r24
    2d10:	10 92 49 01 	sts	0x0149, r1
    2d14:	31 e0       	ldi	r19, 0x01	; 1
    2d16:	30 93 4b 01 	sts	0x014B, r19
    2d1a:	30 93 4a 01 	sts	0x014A, r19
    2d1e:	0c 94 8d 0b 	jmp	0x171a	; 0x171a <main+0x8e>
    2d22:	80 91 9e 01 	lds	r24, 0x019E
    2d26:	90 91 9f 01 	lds	r25, 0x019F
    2d2a:	a0 91 a0 01 	lds	r26, 0x01A0
    2d2e:	b0 91 a1 01 	lds	r27, 0x01A1
    2d32:	40 91 ef 01 	lds	r20, 0x01EF
    2d36:	50 91 f0 01 	lds	r21, 0x01F0
    2d3a:	60 91 f1 01 	lds	r22, 0x01F1
    2d3e:	70 91 f2 01 	lds	r23, 0x01F2
    2d42:	48 17       	cp	r20, r24
    2d44:	59 07       	cpc	r21, r25
    2d46:	6a 07       	cpc	r22, r26
    2d48:	7b 07       	cpc	r23, r27
    2d4a:	08 f0       	brcs	.+2      	; 0x2d4e <main+0x16c2>
    2d4c:	40 c0       	rjmp	.+128    	; 0x2dce <main+0x1742>
    2d4e:	80 91 b8 01 	lds	r24, 0x01B8
    2d52:	82 30       	cpi	r24, 0x02	; 2
    2d54:	79 f4       	brne	.+30     	; 0x2d74 <main+0x16e8>
    2d56:	80 93 e1 01 	sts	0x01E1, r24
    2d5a:	40 91 9e 01 	lds	r20, 0x019E
    2d5e:	50 91 9f 01 	lds	r21, 0x019F
    2d62:	60 91 a0 01 	lds	r22, 0x01A0
    2d66:	70 91 a1 01 	lds	r23, 0x01A1
    2d6a:	80 91 ad 01 	lds	r24, 0x01AD
    2d6e:	90 91 ae 01 	lds	r25, 0x01AE
    2d72:	15 c0       	rjmp	.+42     	; 0x2d9e <main+0x1712>
    2d74:	83 30       	cpi	r24, 0x03	; 3
    2d76:	01 f5       	brne	.+64     	; 0x2db8 <main+0x172c>
    2d78:	80 93 e1 01 	sts	0x01E1, r24
    2d7c:	40 91 9e 01 	lds	r20, 0x019E
    2d80:	50 91 9f 01 	lds	r21, 0x019F
    2d84:	60 91 a0 01 	lds	r22, 0x01A0
    2d88:	70 91 a1 01 	lds	r23, 0x01A1
    2d8c:	20 91 ad 01 	lds	r18, 0x01AD
    2d90:	30 91 ae 01 	lds	r19, 0x01AE
    2d94:	c9 01       	movw	r24, r18
    2d96:	88 0f       	add	r24, r24
    2d98:	99 1f       	adc	r25, r25
    2d9a:	82 0f       	add	r24, r18
    2d9c:	93 1f       	adc	r25, r19
    2d9e:	48 0f       	add	r20, r24
    2da0:	59 1f       	adc	r21, r25
    2da2:	61 1d       	adc	r22, r1
    2da4:	71 1d       	adc	r23, r1
    2da6:	40 93 ef 01 	sts	0x01EF, r20
    2daa:	50 93 f0 01 	sts	0x01F0, r21
    2dae:	60 93 f1 01 	sts	0x01F1, r22
    2db2:	70 93 f2 01 	sts	0x01F2, r23
    2db6:	06 c0       	rjmp	.+12     	; 0x2dc4 <main+0x1738>
    2db8:	8b 30       	cpi	r24, 0x0B	; 11
    2dba:	09 f4       	brne	.+2      	; 0x2dbe <main+0x1732>
    2dbc:	01 c0       	rjmp	.+2      	; 0x2dc0 <main+0x1734>
    2dbe:	81 e0       	ldi	r24, 0x01	; 1
    2dc0:	80 93 e1 01 	sts	0x01E1, r24
    2dc4:	00 93 ac 01 	sts	0x01AC, r16
    2dc8:	91 e0       	ldi	r25, 0x01	; 1
    2dca:	90 93 b8 01 	sts	0x01B8, r25
    2dce:	80 91 f7 01 	lds	r24, 0x01F7
    2dd2:	81 30       	cpi	r24, 0x01	; 1
    2dd4:	71 f4       	brne	.+28     	; 0x2df2 <main+0x1766>
    2dd6:	80 91 ac 01 	lds	r24, 0x01AC
    2dda:	83 30       	cpi	r24, 0x03	; 3
    2ddc:	51 f4       	brne	.+20     	; 0x2df2 <main+0x1766>
    2dde:	80 91 b8 01 	lds	r24, 0x01B8
    2de2:	81 30       	cpi	r24, 0x01	; 1
    2de4:	31 f4       	brne	.+12     	; 0x2df2 <main+0x1766>
    2de6:	a2 e0       	ldi	r26, 0x02	; 2
    2de8:	a0 93 b8 01 	sts	0x01B8, r26
    2dec:	80 91 97 01 	lds	r24, 0x0197
    2df0:	1e c0       	rjmp	.+60     	; 0x2e2e <main+0x17a2>
    2df2:	80 91 d5 01 	lds	r24, 0x01D5
    2df6:	81 30       	cpi	r24, 0x01	; 1
    2df8:	11 f5       	brne	.+68     	; 0x2e3e <main+0x17b2>
    2dfa:	80 91 ac 01 	lds	r24, 0x01AC
    2dfe:	82 30       	cpi	r24, 0x02	; 2
    2e00:	f1 f4       	brne	.+60     	; 0x2e3e <main+0x17b2>
    2e02:	80 91 b8 01 	lds	r24, 0x01B8
    2e06:	81 30       	cpi	r24, 0x01	; 1
    2e08:	d1 f4       	brne	.+52     	; 0x2e3e <main+0x17b2>
    2e0a:	10 93 b8 01 	sts	0x01B8, r17
    2e0e:	20 91 97 01 	lds	r18, 0x0197
    2e12:	80 e8       	ldi	r24, 0x80	; 128
    2e14:	90 e0       	ldi	r25, 0x00	; 0
    2e16:	02 2e       	mov	r0, r18
    2e18:	02 c0       	rjmp	.+4      	; 0x2e1e <main+0x1792>
    2e1a:	95 95       	asr	r25
    2e1c:	87 95       	ror	r24
    2e1e:	0a 94       	dec	r0
    2e20:	e2 f7       	brpl	.-8      	; 0x2e1a <main+0x178e>
    2e22:	90 91 96 01 	lds	r25, 0x0196
    2e26:	98 0f       	add	r25, r24
    2e28:	90 93 96 01 	sts	0x0196, r25
    2e2c:	82 2f       	mov	r24, r18
    2e2e:	8f 5f       	subi	r24, 0xFF	; 255
    2e30:	80 93 97 01 	sts	0x0197, r24
    2e34:	86 30       	cpi	r24, 0x06	; 6
    2e36:	18 f0       	brcs	.+6      	; 0x2e3e <main+0x17b2>
    2e38:	8b e0       	ldi	r24, 0x0B	; 11
    2e3a:	80 93 b8 01 	sts	0x01B8, r24
    2e3e:	10 92 49 01 	sts	0x0149, r1
    2e42:	10 92 4b 01 	sts	0x014B, r1
    2e46:	b1 e0       	ldi	r27, 0x01	; 1
    2e48:	b0 93 4a 01 	sts	0x014A, r27
    2e4c:	0c 94 8d 0b 	jmp	0x171a	; 0x171a <main+0x8e>
    2e50:	80 e8       	ldi	r24, 0x80	; 128
    2e52:	90 e0       	ldi	r25, 0x00	; 0
    2e54:	00 90 97 01 	lds	r0, 0x0197
    2e58:	02 c0       	rjmp	.+4      	; 0x2e5e <main+0x17d2>
    2e5a:	95 95       	asr	r25
    2e5c:	87 95       	ror	r24
    2e5e:	0a 94       	dec	r0
    2e60:	e2 f7       	brpl	.-8      	; 0x2e5a <main+0x17ce>
    2e62:	90 91 96 01 	lds	r25, 0x0196
    2e66:	98 0f       	add	r25, r24
    2e68:	90 93 96 01 	sts	0x0196, r25
    2e6c:	80 e2       	ldi	r24, 0x20	; 32
    2e6e:	23 c0       	rjmp	.+70     	; 0x2eb6 <main+0x182a>
    2e70:	e8 2f       	mov	r30, r24
    2e72:	f0 e0       	ldi	r31, 0x00	; 0
    2e74:	e8 5b       	subi	r30, 0xB8	; 184
    2e76:	fe 4f       	sbci	r31, 0xFE	; 254
    2e78:	e4 91       	lpm	r30, Z+
    2e7a:	28 2f       	mov	r18, r24
    2e7c:	2f 5f       	subi	r18, 0xFF	; 255
    2e7e:	9e 13       	cpse	r25, r30
    2e80:	19 c0       	rjmp	.+50     	; 0x2eb4 <main+0x1828>
    2e82:	80 93 9c 01 	sts	0x019C, r24
    2e86:	41 e0       	ldi	r20, 0x01	; 1
    2e88:	50 e0       	ldi	r21, 0x00	; 0
    2e8a:	6c e9       	ldi	r22, 0x9C	; 156
    2e8c:	71 e0       	ldi	r23, 0x01	; 1
    2e8e:	85 e6       	ldi	r24, 0x65	; 101
    2e90:	91 e0       	ldi	r25, 0x01	; 1
    2e92:	0e 94 7f 19 	call	0x32fe	; 0x32fe <strncat>
    2e96:	10 92 96 01 	sts	0x0196, r1
    2e9a:	10 92 97 01 	sts	0x0197, r1
    2e9e:	e1 e0       	ldi	r30, 0x01	; 1
    2ea0:	e0 93 e1 01 	sts	0x01E1, r30
    2ea4:	46 e1       	ldi	r20, 0x16	; 22
    2ea6:	64 e8       	ldi	r22, 0x84	; 132
    2ea8:	73 e0       	ldi	r23, 0x03	; 3
    2eaa:	86 e4       	ldi	r24, 0x46	; 70
    2eac:	91 e0       	ldi	r25, 0x01	; 1
    2eae:	0e 94 da 02 	call	0x5b4	; 0x5b4 <announce>
    2eb2:	05 c0       	rjmp	.+10     	; 0x2ebe <main+0x1832>
    2eb4:	82 2f       	mov	r24, r18
    2eb6:	8b 35       	cpi	r24, 0x5B	; 91
    2eb8:	d8 f2       	brcs	.-74     	; 0x2e70 <main+0x17e4>
    2eba:	80 93 9c 01 	sts	0x019C, r24
    2ebe:	80 91 9c 01 	lds	r24, 0x019C
    2ec2:	8b 35       	cpi	r24, 0x5B	; 91
    2ec4:	78 f0       	brcs	.+30     	; 0x2ee4 <main+0x1858>
    2ec6:	80 e8       	ldi	r24, 0x80	; 128
    2ec8:	80 93 96 01 	sts	0x0196, r24
    2ecc:	10 92 97 01 	sts	0x0197, r1
    2ed0:	f1 e0       	ldi	r31, 0x01	; 1
    2ed2:	f0 93 e1 01 	sts	0x01E1, r31
    2ed6:	46 e1       	ldi	r20, 0x16	; 22
    2ed8:	60 e9       	ldi	r22, 0x90	; 144
    2eda:	71 e0       	ldi	r23, 0x01	; 1
    2edc:	84 e3       	ldi	r24, 0x34	; 52
    2ede:	91 e0       	ldi	r25, 0x01	; 1
    2ee0:	0e 94 da 02 	call	0x5b4	; 0x5b4 <announce>
    2ee4:	21 e0       	ldi	r18, 0x01	; 1
    2ee6:	20 93 e1 01 	sts	0x01E1, r18
    2eea:	0c 94 8d 0b 	jmp	0x171a	; 0x171a <main+0x8e>
    2eee:	49 e2       	ldi	r20, 0x29	; 41
    2ef0:	50 e0       	ldi	r21, 0x00	; 0
    2ef2:	6d e2       	ldi	r22, 0x2D	; 45
    2ef4:	70 e0       	ldi	r23, 0x00	; 0
    2ef6:	85 e6       	ldi	r24, 0x65	; 101
    2ef8:	91 e0       	ldi	r25, 0x01	; 1
    2efa:	0e 94 b8 1b 	call	0x3770	; 0x3770 <__eewr_block_m328p>
    2efe:	40 91 9e 01 	lds	r20, 0x019E
    2f02:	50 91 9f 01 	lds	r21, 0x019F
    2f06:	60 91 a0 01 	lds	r22, 0x01A0
    2f0a:	70 91 a1 01 	lds	r23, 0x01A1
    2f0e:	40 93 f3 01 	sts	0x01F3, r20
    2f12:	50 93 f4 01 	sts	0x01F4, r21
    2f16:	60 93 f5 01 	sts	0x01F5, r22
    2f1a:	70 93 f6 01 	sts	0x01F6, r23
    2f1e:	10 92 4a 01 	sts	0x014A, r1
    2f22:	31 e0       	ldi	r19, 0x01	; 1
    2f24:	30 93 e1 01 	sts	0x01E1, r19
    2f28:	80 91 a3 01 	lds	r24, 0x01A3
    2f2c:	80 93 b3 01 	sts	0x01B3, r24
    2f30:	46 e1       	ldi	r20, 0x16	; 22
    2f32:	64 e8       	ldi	r22, 0x84	; 132
    2f34:	73 e0       	ldi	r23, 0x03	; 3
    2f36:	82 e3       	ldi	r24, 0x32	; 50
    2f38:	91 e0       	ldi	r25, 0x01	; 1
    2f3a:	0e 94 da 02 	call	0x5b4	; 0x5b4 <announce>
    2f3e:	0c 94 8d 0b 	jmp	0x171a	; 0x171a <main+0x8e>
    2f42:	20 93 a3 01 	sts	0x01A3, r18
    2f46:	0e 94 c4 04 	call	0x988	; 0x988 <poll_buttons>
    2f4a:	80 91 e1 01 	lds	r24, 0x01E1
    2f4e:	81 30       	cpi	r24, 0x01	; 1
    2f50:	11 f5       	brne	.+68     	; 0x2f96 <main+0x190a>
    2f52:	c0 92 ef 01 	sts	0x01EF, r12
    2f56:	d0 92 f0 01 	sts	0x01F0, r13
    2f5a:	e0 92 f1 01 	sts	0x01F1, r14
    2f5e:	f0 92 f2 01 	sts	0x01F2, r15
    2f62:	10 92 49 01 	sts	0x0149, r1
    2f66:	10 92 4b 01 	sts	0x014B, r1
    2f6a:	10 92 4a 01 	sts	0x014A, r1
    2f6e:	40 91 9e 01 	lds	r20, 0x019E
    2f72:	50 91 9f 01 	lds	r21, 0x019F
    2f76:	60 91 a0 01 	lds	r22, 0x01A0
    2f7a:	70 91 a1 01 	lds	r23, 0x01A1
    2f7e:	40 93 f3 01 	sts	0x01F3, r20
    2f82:	50 93 f4 01 	sts	0x01F4, r21
    2f86:	60 93 f5 01 	sts	0x01F5, r22
    2f8a:	70 93 f6 01 	sts	0x01F6, r23
    2f8e:	10 92 ed 01 	sts	0x01ED, r1
    2f92:	0c 94 8d 0b 	jmp	0x171a	; 0x171a <main+0x8e>
    2f96:	81 e0       	ldi	r24, 0x01	; 1
    2f98:	80 93 e1 01 	sts	0x01E1, r24
    2f9c:	0c 94 8d 0b 	jmp	0x171a	; 0x171a <main+0x8e>

00002fa0 <__muluhisi3>:
    2fa0:	0e 94 35 18 	call	0x306a	; 0x306a <__umulhisi3>
    2fa4:	a5 9f       	mul	r26, r21
    2fa6:	90 0d       	add	r25, r0
    2fa8:	b4 9f       	mul	r27, r20
    2faa:	90 0d       	add	r25, r0
    2fac:	a4 9f       	mul	r26, r20
    2fae:	80 0d       	add	r24, r0
    2fb0:	91 1d       	adc	r25, r1
    2fb2:	11 24       	eor	r1, r1
    2fb4:	08 95       	ret

00002fb6 <__mulsi3>:
    2fb6:	db 01       	movw	r26, r22
    2fb8:	8f 93       	push	r24
    2fba:	9f 93       	push	r25
    2fbc:	0e 94 d0 17 	call	0x2fa0	; 0x2fa0 <__muluhisi3>
    2fc0:	bf 91       	pop	r27
    2fc2:	af 91       	pop	r26
    2fc4:	a2 9f       	mul	r26, r18
    2fc6:	80 0d       	add	r24, r0
    2fc8:	91 1d       	adc	r25, r1
    2fca:	a3 9f       	mul	r26, r19
    2fcc:	90 0d       	add	r25, r0
    2fce:	b2 9f       	mul	r27, r18
    2fd0:	90 0d       	add	r25, r0
    2fd2:	11 24       	eor	r1, r1
    2fd4:	08 95       	ret

00002fd6 <__udivmodhi4>:
    2fd6:	aa 1b       	sub	r26, r26
    2fd8:	bb 1b       	sub	r27, r27
    2fda:	51 e1       	ldi	r21, 0x11	; 17
    2fdc:	07 c0       	rjmp	.+14     	; 0x2fec <__udivmodhi4_ep>

00002fde <__udivmodhi4_loop>:
    2fde:	aa 1f       	adc	r26, r26
    2fe0:	bb 1f       	adc	r27, r27
    2fe2:	a6 17       	cp	r26, r22
    2fe4:	b7 07       	cpc	r27, r23
    2fe6:	10 f0       	brcs	.+4      	; 0x2fec <__udivmodhi4_ep>
    2fe8:	a6 1b       	sub	r26, r22
    2fea:	b7 0b       	sbc	r27, r23

00002fec <__udivmodhi4_ep>:
    2fec:	88 1f       	adc	r24, r24
    2fee:	99 1f       	adc	r25, r25
    2ff0:	5a 95       	dec	r21
    2ff2:	a9 f7       	brne	.-22     	; 0x2fde <__udivmodhi4_loop>
    2ff4:	80 95       	com	r24
    2ff6:	90 95       	com	r25
    2ff8:	bc 01       	movw	r22, r24
    2ffa:	cd 01       	movw	r24, r26
    2ffc:	08 95       	ret

00002ffe <__divmodhi4>:
    2ffe:	97 fb       	bst	r25, 7
    3000:	07 2e       	mov	r0, r23
    3002:	16 f4       	brtc	.+4      	; 0x3008 <__divmodhi4+0xa>
    3004:	00 94       	com	r0
    3006:	07 d0       	rcall	.+14     	; 0x3016 <__divmodhi4_neg1>
    3008:	77 fd       	sbrc	r23, 7
    300a:	09 d0       	rcall	.+18     	; 0x301e <__divmodhi4_neg2>
    300c:	0e 94 eb 17 	call	0x2fd6	; 0x2fd6 <__udivmodhi4>
    3010:	07 fc       	sbrc	r0, 7
    3012:	05 d0       	rcall	.+10     	; 0x301e <__divmodhi4_neg2>
    3014:	3e f4       	brtc	.+14     	; 0x3024 <__divmodhi4_exit>

00003016 <__divmodhi4_neg1>:
    3016:	90 95       	com	r25
    3018:	81 95       	neg	r24
    301a:	9f 4f       	sbci	r25, 0xFF	; 255
    301c:	08 95       	ret

0000301e <__divmodhi4_neg2>:
    301e:	70 95       	com	r23
    3020:	61 95       	neg	r22
    3022:	7f 4f       	sbci	r23, 0xFF	; 255

00003024 <__divmodhi4_exit>:
    3024:	08 95       	ret

00003026 <__udivmodsi4>:
    3026:	a1 e2       	ldi	r26, 0x21	; 33
    3028:	1a 2e       	mov	r1, r26
    302a:	aa 1b       	sub	r26, r26
    302c:	bb 1b       	sub	r27, r27
    302e:	fd 01       	movw	r30, r26
    3030:	0d c0       	rjmp	.+26     	; 0x304c <__udivmodsi4_ep>

00003032 <__udivmodsi4_loop>:
    3032:	aa 1f       	adc	r26, r26
    3034:	bb 1f       	adc	r27, r27
    3036:	ee 1f       	adc	r30, r30
    3038:	ff 1f       	adc	r31, r31
    303a:	a2 17       	cp	r26, r18
    303c:	b3 07       	cpc	r27, r19
    303e:	e4 07       	cpc	r30, r20
    3040:	f5 07       	cpc	r31, r21
    3042:	20 f0       	brcs	.+8      	; 0x304c <__udivmodsi4_ep>
    3044:	a2 1b       	sub	r26, r18
    3046:	b3 0b       	sbc	r27, r19
    3048:	e4 0b       	sbc	r30, r20
    304a:	f5 0b       	sbc	r31, r21

0000304c <__udivmodsi4_ep>:
    304c:	66 1f       	adc	r22, r22
    304e:	77 1f       	adc	r23, r23
    3050:	88 1f       	adc	r24, r24
    3052:	99 1f       	adc	r25, r25
    3054:	1a 94       	dec	r1
    3056:	69 f7       	brne	.-38     	; 0x3032 <__udivmodsi4_loop>
    3058:	60 95       	com	r22
    305a:	70 95       	com	r23
    305c:	80 95       	com	r24
    305e:	90 95       	com	r25
    3060:	9b 01       	movw	r18, r22
    3062:	ac 01       	movw	r20, r24
    3064:	bd 01       	movw	r22, r26
    3066:	cf 01       	movw	r24, r30
    3068:	08 95       	ret

0000306a <__umulhisi3>:
    306a:	a2 9f       	mul	r26, r18
    306c:	b0 01       	movw	r22, r0
    306e:	b3 9f       	mul	r27, r19
    3070:	c0 01       	movw	r24, r0
    3072:	a3 9f       	mul	r26, r19
    3074:	01 d0       	rcall	.+2      	; 0x3078 <__umulhisi3+0xe>
    3076:	b2 9f       	mul	r27, r18
    3078:	70 0d       	add	r23, r0
    307a:	81 1d       	adc	r24, r1
    307c:	11 24       	eor	r1, r1
    307e:	91 1d       	adc	r25, r1
    3080:	08 95       	ret

00003082 <malloc>:
    3082:	0f 93       	push	r16
    3084:	1f 93       	push	r17
    3086:	cf 93       	push	r28
    3088:	df 93       	push	r29
    308a:	82 30       	cpi	r24, 0x02	; 2
    308c:	91 05       	cpc	r25, r1
    308e:	10 f4       	brcc	.+4      	; 0x3094 <malloc+0x12>
    3090:	82 e0       	ldi	r24, 0x02	; 2
    3092:	90 e0       	ldi	r25, 0x00	; 0
    3094:	e0 91 10 02 	lds	r30, 0x0210
    3098:	f0 91 11 02 	lds	r31, 0x0211
    309c:	20 e0       	ldi	r18, 0x00	; 0
    309e:	30 e0       	ldi	r19, 0x00	; 0
    30a0:	c0 e0       	ldi	r28, 0x00	; 0
    30a2:	d0 e0       	ldi	r29, 0x00	; 0
    30a4:	23 c0       	rjmp	.+70     	; 0x30ec <malloc+0x6a>
    30a6:	40 81       	ld	r20, Z
    30a8:	51 81       	ldd	r21, Z+1	; 0x01
    30aa:	48 17       	cp	r20, r24
    30ac:	59 07       	cpc	r21, r25
    30ae:	a8 f0       	brcs	.+42     	; 0x30da <malloc+0x58>
    30b0:	48 17       	cp	r20, r24
    30b2:	59 07       	cpc	r21, r25
    30b4:	61 f4       	brne	.+24     	; 0x30ce <malloc+0x4c>
    30b6:	82 81       	ldd	r24, Z+2	; 0x02
    30b8:	93 81       	ldd	r25, Z+3	; 0x03
    30ba:	20 97       	sbiw	r28, 0x00	; 0
    30bc:	19 f0       	breq	.+6      	; 0x30c4 <malloc+0x42>
    30be:	9b 83       	std	Y+3, r25	; 0x03
    30c0:	8a 83       	std	Y+2, r24	; 0x02
    30c2:	2e c0       	rjmp	.+92     	; 0x3120 <malloc+0x9e>
    30c4:	90 93 11 02 	sts	0x0211, r25
    30c8:	80 93 10 02 	sts	0x0210, r24
    30cc:	29 c0       	rjmp	.+82     	; 0x3120 <malloc+0x9e>
    30ce:	21 15       	cp	r18, r1
    30d0:	31 05       	cpc	r19, r1
    30d2:	29 f0       	breq	.+10     	; 0x30de <malloc+0x5c>
    30d4:	42 17       	cp	r20, r18
    30d6:	53 07       	cpc	r21, r19
    30d8:	10 f0       	brcs	.+4      	; 0x30de <malloc+0x5c>
    30da:	a9 01       	movw	r20, r18
    30dc:	02 c0       	rjmp	.+4      	; 0x30e2 <malloc+0x60>
    30de:	be 01       	movw	r22, r28
    30e0:	df 01       	movw	r26, r30
    30e2:	02 81       	ldd	r16, Z+2	; 0x02
    30e4:	13 81       	ldd	r17, Z+3	; 0x03
    30e6:	ef 01       	movw	r28, r30
    30e8:	9a 01       	movw	r18, r20
    30ea:	f8 01       	movw	r30, r16
    30ec:	30 97       	sbiw	r30, 0x00	; 0
    30ee:	d9 f6       	brne	.-74     	; 0x30a6 <malloc+0x24>
    30f0:	21 15       	cp	r18, r1
    30f2:	31 05       	cpc	r19, r1
    30f4:	09 f1       	breq	.+66     	; 0x3138 <malloc+0xb6>
    30f6:	28 1b       	sub	r18, r24
    30f8:	39 0b       	sbc	r19, r25
    30fa:	24 30       	cpi	r18, 0x04	; 4
    30fc:	31 05       	cpc	r19, r1
    30fe:	90 f4       	brcc	.+36     	; 0x3124 <malloc+0xa2>
    3100:	12 96       	adiw	r26, 0x02	; 2
    3102:	8d 91       	ld	r24, X+
    3104:	9c 91       	ld	r25, X
    3106:	13 97       	sbiw	r26, 0x03	; 3
    3108:	61 15       	cp	r22, r1
    310a:	71 05       	cpc	r23, r1
    310c:	21 f0       	breq	.+8      	; 0x3116 <malloc+0x94>
    310e:	fb 01       	movw	r30, r22
    3110:	93 83       	std	Z+3, r25	; 0x03
    3112:	82 83       	std	Z+2, r24	; 0x02
    3114:	04 c0       	rjmp	.+8      	; 0x311e <malloc+0x9c>
    3116:	90 93 11 02 	sts	0x0211, r25
    311a:	80 93 10 02 	sts	0x0210, r24
    311e:	fd 01       	movw	r30, r26
    3120:	32 96       	adiw	r30, 0x02	; 2
    3122:	44 c0       	rjmp	.+136    	; 0x31ac <malloc+0x12a>
    3124:	fd 01       	movw	r30, r26
    3126:	e2 0f       	add	r30, r18
    3128:	f3 1f       	adc	r31, r19
    312a:	81 93       	st	Z+, r24
    312c:	91 93       	st	Z+, r25
    312e:	22 50       	subi	r18, 0x02	; 2
    3130:	31 09       	sbc	r19, r1
    3132:	2d 93       	st	X+, r18
    3134:	3c 93       	st	X, r19
    3136:	3a c0       	rjmp	.+116    	; 0x31ac <malloc+0x12a>
    3138:	20 91 0e 02 	lds	r18, 0x020E
    313c:	30 91 0f 02 	lds	r19, 0x020F
    3140:	23 2b       	or	r18, r19
    3142:	41 f4       	brne	.+16     	; 0x3154 <malloc+0xd2>
    3144:	20 91 0d 01 	lds	r18, 0x010D
    3148:	30 91 0e 01 	lds	r19, 0x010E
    314c:	30 93 0f 02 	sts	0x020F, r19
    3150:	20 93 0e 02 	sts	0x020E, r18
    3154:	20 91 0b 01 	lds	r18, 0x010B
    3158:	30 91 0c 01 	lds	r19, 0x010C
    315c:	21 15       	cp	r18, r1
    315e:	31 05       	cpc	r19, r1
    3160:	41 f4       	brne	.+16     	; 0x3172 <malloc+0xf0>
    3162:	2d b7       	in	r18, 0x3d	; 61
    3164:	3e b7       	in	r19, 0x3e	; 62
    3166:	40 91 0f 01 	lds	r20, 0x010F
    316a:	50 91 10 01 	lds	r21, 0x0110
    316e:	24 1b       	sub	r18, r20
    3170:	35 0b       	sbc	r19, r21
    3172:	e0 91 0e 02 	lds	r30, 0x020E
    3176:	f0 91 0f 02 	lds	r31, 0x020F
    317a:	e2 17       	cp	r30, r18
    317c:	f3 07       	cpc	r31, r19
    317e:	a0 f4       	brcc	.+40     	; 0x31a8 <malloc+0x126>
    3180:	2e 1b       	sub	r18, r30
    3182:	3f 0b       	sbc	r19, r31
    3184:	28 17       	cp	r18, r24
    3186:	39 07       	cpc	r19, r25
    3188:	78 f0       	brcs	.+30     	; 0x31a8 <malloc+0x126>
    318a:	ac 01       	movw	r20, r24
    318c:	4e 5f       	subi	r20, 0xFE	; 254
    318e:	5f 4f       	sbci	r21, 0xFF	; 255
    3190:	24 17       	cp	r18, r20
    3192:	35 07       	cpc	r19, r21
    3194:	48 f0       	brcs	.+18     	; 0x31a8 <malloc+0x126>
    3196:	4e 0f       	add	r20, r30
    3198:	5f 1f       	adc	r21, r31
    319a:	50 93 0f 02 	sts	0x020F, r21
    319e:	40 93 0e 02 	sts	0x020E, r20
    31a2:	81 93       	st	Z+, r24
    31a4:	91 93       	st	Z+, r25
    31a6:	02 c0       	rjmp	.+4      	; 0x31ac <malloc+0x12a>
    31a8:	e0 e0       	ldi	r30, 0x00	; 0
    31aa:	f0 e0       	ldi	r31, 0x00	; 0
    31ac:	cf 01       	movw	r24, r30
    31ae:	df 91       	pop	r29
    31b0:	cf 91       	pop	r28
    31b2:	1f 91       	pop	r17
    31b4:	0f 91       	pop	r16
    31b6:	08 95       	ret

000031b8 <free>:
    31b8:	ef 92       	push	r14
    31ba:	ff 92       	push	r15
    31bc:	0f 93       	push	r16
    31be:	1f 93       	push	r17
    31c0:	cf 93       	push	r28
    31c2:	df 93       	push	r29
    31c4:	00 97       	sbiw	r24, 0x00	; 0
    31c6:	09 f4       	brne	.+2      	; 0x31ca <free+0x12>
    31c8:	8e c0       	rjmp	.+284    	; 0x32e6 <free+0x12e>
    31ca:	dc 01       	movw	r26, r24
    31cc:	12 97       	sbiw	r26, 0x02	; 2
    31ce:	13 96       	adiw	r26, 0x03	; 3
    31d0:	1c 92       	st	X, r1
    31d2:	1e 92       	st	-X, r1
    31d4:	12 97       	sbiw	r26, 0x02	; 2
    31d6:	e0 90 10 02 	lds	r14, 0x0210
    31da:	f0 90 11 02 	lds	r15, 0x0211
    31de:	e1 14       	cp	r14, r1
    31e0:	f1 04       	cpc	r15, r1
    31e2:	89 f4       	brne	.+34     	; 0x3206 <free+0x4e>
    31e4:	2d 91       	ld	r18, X+
    31e6:	3c 91       	ld	r19, X
    31e8:	11 97       	sbiw	r26, 0x01	; 1
    31ea:	28 0f       	add	r18, r24
    31ec:	39 1f       	adc	r19, r25
    31ee:	80 91 0e 02 	lds	r24, 0x020E
    31f2:	90 91 0f 02 	lds	r25, 0x020F
    31f6:	82 17       	cp	r24, r18
    31f8:	93 07       	cpc	r25, r19
    31fa:	89 f5       	brne	.+98     	; 0x325e <free+0xa6>
    31fc:	b0 93 0f 02 	sts	0x020F, r27
    3200:	a0 93 0e 02 	sts	0x020E, r26
    3204:	70 c0       	rjmp	.+224    	; 0x32e6 <free+0x12e>
    3206:	e7 01       	movw	r28, r14
    3208:	20 e0       	ldi	r18, 0x00	; 0
    320a:	30 e0       	ldi	r19, 0x00	; 0
    320c:	01 c0       	rjmp	.+2      	; 0x3210 <free+0x58>
    320e:	ea 01       	movw	r28, r20
    3210:	ca 17       	cp	r28, r26
    3212:	db 07       	cpc	r29, r27
    3214:	38 f4       	brcc	.+14     	; 0x3224 <free+0x6c>
    3216:	4a 81       	ldd	r20, Y+2	; 0x02
    3218:	5b 81       	ldd	r21, Y+3	; 0x03
    321a:	9e 01       	movw	r18, r28
    321c:	41 15       	cp	r20, r1
    321e:	51 05       	cpc	r21, r1
    3220:	b1 f7       	brne	.-20     	; 0x320e <free+0x56>
    3222:	22 c0       	rjmp	.+68     	; 0x3268 <free+0xb0>
    3224:	ac 01       	movw	r20, r24
    3226:	42 50       	subi	r20, 0x02	; 2
    3228:	51 09       	sbc	r21, r1
    322a:	fa 01       	movw	r30, r20
    322c:	d3 83       	std	Z+3, r29	; 0x03
    322e:	c2 83       	std	Z+2, r28	; 0x02
    3230:	00 81       	ld	r16, Z
    3232:	11 81       	ldd	r17, Z+1	; 0x01
    3234:	bc 01       	movw	r22, r24
    3236:	60 0f       	add	r22, r16
    3238:	71 1f       	adc	r23, r17
    323a:	6c 17       	cp	r22, r28
    323c:	7d 07       	cpc	r23, r29
    323e:	61 f4       	brne	.+24     	; 0x3258 <free+0xa0>
    3240:	68 81       	ld	r22, Y
    3242:	79 81       	ldd	r23, Y+1	; 0x01
    3244:	60 0f       	add	r22, r16
    3246:	71 1f       	adc	r23, r17
    3248:	6e 5f       	subi	r22, 0xFE	; 254
    324a:	7f 4f       	sbci	r23, 0xFF	; 255
    324c:	71 83       	std	Z+1, r23	; 0x01
    324e:	60 83       	st	Z, r22
    3250:	6a 81       	ldd	r22, Y+2	; 0x02
    3252:	7b 81       	ldd	r23, Y+3	; 0x03
    3254:	73 83       	std	Z+3, r23	; 0x03
    3256:	62 83       	std	Z+2, r22	; 0x02
    3258:	21 15       	cp	r18, r1
    325a:	31 05       	cpc	r19, r1
    325c:	29 f4       	brne	.+10     	; 0x3268 <free+0xb0>
    325e:	b0 93 11 02 	sts	0x0211, r27
    3262:	a0 93 10 02 	sts	0x0210, r26
    3266:	3f c0       	rjmp	.+126    	; 0x32e6 <free+0x12e>
    3268:	f9 01       	movw	r30, r18
    326a:	b3 83       	std	Z+3, r27	; 0x03
    326c:	a2 83       	std	Z+2, r26	; 0x02
    326e:	e9 01       	movw	r28, r18
    3270:	49 91       	ld	r20, Y+
    3272:	59 91       	ld	r21, Y+
    3274:	c4 0f       	add	r28, r20
    3276:	d5 1f       	adc	r29, r21
    3278:	ac 17       	cp	r26, r28
    327a:	bd 07       	cpc	r27, r29
    327c:	71 f4       	brne	.+28     	; 0x329a <free+0xe2>
    327e:	dc 01       	movw	r26, r24
    3280:	9e 91       	ld	r25, -X
    3282:	8e 91       	ld	r24, -X
    3284:	84 0f       	add	r24, r20
    3286:	95 1f       	adc	r25, r21
    3288:	02 96       	adiw	r24, 0x02	; 2
    328a:	91 83       	std	Z+1, r25	; 0x01
    328c:	80 83       	st	Z, r24
    328e:	12 96       	adiw	r26, 0x02	; 2
    3290:	8d 91       	ld	r24, X+
    3292:	9c 91       	ld	r25, X
    3294:	13 97       	sbiw	r26, 0x03	; 3
    3296:	93 83       	std	Z+3, r25	; 0x03
    3298:	82 83       	std	Z+2, r24	; 0x02
    329a:	a0 e0       	ldi	r26, 0x00	; 0
    329c:	b0 e0       	ldi	r27, 0x00	; 0
    329e:	02 c0       	rjmp	.+4      	; 0x32a4 <free+0xec>
    32a0:	d7 01       	movw	r26, r14
    32a2:	7c 01       	movw	r14, r24
    32a4:	f7 01       	movw	r30, r14
    32a6:	82 81       	ldd	r24, Z+2	; 0x02
    32a8:	93 81       	ldd	r25, Z+3	; 0x03
    32aa:	00 97       	sbiw	r24, 0x00	; 0
    32ac:	c9 f7       	brne	.-14     	; 0x32a0 <free+0xe8>
    32ae:	c7 01       	movw	r24, r14
    32b0:	02 96       	adiw	r24, 0x02	; 2
    32b2:	20 81       	ld	r18, Z
    32b4:	31 81       	ldd	r19, Z+1	; 0x01
    32b6:	82 0f       	add	r24, r18
    32b8:	93 1f       	adc	r25, r19
    32ba:	20 91 0e 02 	lds	r18, 0x020E
    32be:	30 91 0f 02 	lds	r19, 0x020F
    32c2:	28 17       	cp	r18, r24
    32c4:	39 07       	cpc	r19, r25
    32c6:	79 f4       	brne	.+30     	; 0x32e6 <free+0x12e>
    32c8:	10 97       	sbiw	r26, 0x00	; 0
    32ca:	29 f4       	brne	.+10     	; 0x32d6 <free+0x11e>
    32cc:	10 92 11 02 	sts	0x0211, r1
    32d0:	10 92 10 02 	sts	0x0210, r1
    32d4:	04 c0       	rjmp	.+8      	; 0x32de <free+0x126>
    32d6:	13 96       	adiw	r26, 0x03	; 3
    32d8:	1c 92       	st	X, r1
    32da:	1e 92       	st	-X, r1
    32dc:	12 97       	sbiw	r26, 0x02	; 2
    32de:	f0 92 0f 02 	sts	0x020F, r15
    32e2:	e0 92 0e 02 	sts	0x020E, r14
    32e6:	cd b7       	in	r28, 0x3d	; 61
    32e8:	de b7       	in	r29, 0x3e	; 62
    32ea:	e6 e0       	ldi	r30, 0x06	; 6
    32ec:	0c 94 a5 1c 	jmp	0x394a	; 0x394a <__epilogue_restores__+0x18>

000032f0 <strcpy>:
    32f0:	fb 01       	movw	r30, r22
    32f2:	dc 01       	movw	r26, r24
    32f4:	01 90       	ld	r0, Z+
    32f6:	0d 92       	st	X+, r0
    32f8:	00 20       	and	r0, r0
    32fa:	e1 f7       	brne	.-8      	; 0x32f4 <strcpy+0x4>
    32fc:	08 95       	ret

000032fe <strncat>:
    32fe:	fb 01       	movw	r30, r22
    3300:	dc 01       	movw	r26, r24
    3302:	0d 90       	ld	r0, X+
    3304:	00 20       	and	r0, r0
    3306:	e9 f7       	brne	.-6      	; 0x3302 <strncat+0x4>
    3308:	11 97       	sbiw	r26, 0x01	; 1
    330a:	41 50       	subi	r20, 0x01	; 1
    330c:	50 40       	sbci	r21, 0x00	; 0
    330e:	28 f0       	brcs	.+10     	; 0x331a <strncat+0x1c>
    3310:	01 90       	ld	r0, Z+
    3312:	00 20       	and	r0, r0
    3314:	0d 92       	st	X+, r0
    3316:	c9 f7       	brne	.-14     	; 0x330a <strncat+0xc>
    3318:	08 95       	ret
    331a:	1c 92       	st	X, r1
    331c:	08 95       	ret

0000331e <strupr>:
    331e:	dc 01       	movw	r26, r24
    3320:	6c 91       	ld	r22, X
    3322:	61 56       	subi	r22, 0x61	; 97
    3324:	6a 31       	cpi	r22, 0x1A	; 26
    3326:	08 f0       	brcs	.+2      	; 0x332a <strupr+0xc>
    3328:	60 5e       	subi	r22, 0xE0	; 224
    332a:	6f 5b       	subi	r22, 0xBF	; 191
    332c:	6d 93       	st	X+, r22
    332e:	c1 f7       	brne	.-16     	; 0x3320 <strupr+0x2>
    3330:	08 95       	ret

00003332 <sprintf>:
    3332:	a0 e1       	ldi	r26, 0x10	; 16
    3334:	b0 e0       	ldi	r27, 0x00	; 0
    3336:	ef e9       	ldi	r30, 0x9F	; 159
    3338:	f9 e1       	ldi	r31, 0x19	; 25
    333a:	0c 94 8b 1c 	jmp	0x3916	; 0x3916 <__prologue_saves__+0x1c>
    333e:	0f 89       	ldd	r16, Y+23	; 0x17
    3340:	18 8d       	ldd	r17, Y+24	; 0x18
    3342:	86 e0       	ldi	r24, 0x06	; 6
    3344:	8c 83       	std	Y+4, r24	; 0x04
    3346:	1a 83       	std	Y+2, r17	; 0x02
    3348:	09 83       	std	Y+1, r16	; 0x01
    334a:	8f ef       	ldi	r24, 0xFF	; 255
    334c:	9f e7       	ldi	r25, 0x7F	; 127
    334e:	9e 83       	std	Y+6, r25	; 0x06
    3350:	8d 83       	std	Y+5, r24	; 0x05
    3352:	ae 01       	movw	r20, r28
    3354:	45 5e       	subi	r20, 0xE5	; 229
    3356:	5f 4f       	sbci	r21, 0xFF	; 255
    3358:	58 8b       	std	Y+16, r21	; 0x10
    335a:	4f 87       	std	Y+15, r20	; 0x0f
    335c:	69 8d       	ldd	r22, Y+25	; 0x19
    335e:	7a 8d       	ldd	r23, Y+26	; 0x1a
    3360:	ce 01       	movw	r24, r28
    3362:	01 96       	adiw	r24, 0x01	; 1
    3364:	0e 94 bd 19 	call	0x337a	; 0x337a <vfprintf>
    3368:	ef 81       	ldd	r30, Y+7	; 0x07
    336a:	f8 85       	ldd	r31, Y+8	; 0x08
    336c:	e0 0f       	add	r30, r16
    336e:	f1 1f       	adc	r31, r17
    3370:	10 82       	st	Z, r1
    3372:	60 96       	adiw	r28, 0x10	; 16
    3374:	e4 e0       	ldi	r30, 0x04	; 4
    3376:	0c 94 a7 1c 	jmp	0x394e	; 0x394e <__epilogue_restores__+0x1c>

0000337a <vfprintf>:
    337a:	ac e0       	ldi	r26, 0x0C	; 12
    337c:	b0 e0       	ldi	r27, 0x00	; 0
    337e:	e3 ec       	ldi	r30, 0xC3	; 195
    3380:	f9 e1       	ldi	r31, 0x19	; 25
    3382:	0c 94 7d 1c 	jmp	0x38fa	; 0x38fa <__prologue_saves__>
    3386:	7c 01       	movw	r14, r24
    3388:	6b 01       	movw	r12, r22
    338a:	8a 01       	movw	r16, r20
    338c:	fc 01       	movw	r30, r24
    338e:	17 82       	std	Z+7, r1	; 0x07
    3390:	16 82       	std	Z+6, r1	; 0x06
    3392:	83 81       	ldd	r24, Z+3	; 0x03
    3394:	81 ff       	sbrs	r24, 1
    3396:	c7 c1       	rjmp	.+910    	; 0x3726 <vfprintf+0x3ac>
    3398:	88 24       	eor	r8, r8
    339a:	83 94       	inc	r8
    339c:	91 2c       	mov	r9, r1
    339e:	8c 0e       	add	r8, r28
    33a0:	9d 1e       	adc	r9, r29
    33a2:	f7 01       	movw	r30, r14
    33a4:	93 81       	ldd	r25, Z+3	; 0x03
    33a6:	f6 01       	movw	r30, r12
    33a8:	93 fd       	sbrc	r25, 3
    33aa:	85 91       	lpm	r24, Z+
    33ac:	93 ff       	sbrs	r25, 3
    33ae:	81 91       	ld	r24, Z+
    33b0:	6f 01       	movw	r12, r30
    33b2:	88 23       	and	r24, r24
    33b4:	09 f4       	brne	.+2      	; 0x33b8 <vfprintf+0x3e>
    33b6:	b3 c1       	rjmp	.+870    	; 0x371e <vfprintf+0x3a4>
    33b8:	85 32       	cpi	r24, 0x25	; 37
    33ba:	39 f4       	brne	.+14     	; 0x33ca <vfprintf+0x50>
    33bc:	93 fd       	sbrc	r25, 3
    33be:	85 91       	lpm	r24, Z+
    33c0:	93 ff       	sbrs	r25, 3
    33c2:	81 91       	ld	r24, Z+
    33c4:	6f 01       	movw	r12, r30
    33c6:	85 32       	cpi	r24, 0x25	; 37
    33c8:	29 f4       	brne	.+10     	; 0x33d4 <vfprintf+0x5a>
    33ca:	b7 01       	movw	r22, r14
    33cc:	90 e0       	ldi	r25, 0x00	; 0
    33ce:	0e 94 f3 1b 	call	0x37e6	; 0x37e6 <fputc>
    33d2:	e7 cf       	rjmp	.-50     	; 0x33a2 <vfprintf+0x28>
    33d4:	71 2c       	mov	r7, r1
    33d6:	31 2c       	mov	r3, r1
    33d8:	20 e0       	ldi	r18, 0x00	; 0
    33da:	20 32       	cpi	r18, 0x20	; 32
    33dc:	a8 f4       	brcc	.+42     	; 0x3408 <vfprintf+0x8e>
    33de:	8b 32       	cpi	r24, 0x2B	; 43
    33e0:	61 f0       	breq	.+24     	; 0x33fa <vfprintf+0x80>
    33e2:	28 f4       	brcc	.+10     	; 0x33ee <vfprintf+0x74>
    33e4:	80 32       	cpi	r24, 0x20	; 32
    33e6:	51 f0       	breq	.+20     	; 0x33fc <vfprintf+0x82>
    33e8:	83 32       	cpi	r24, 0x23	; 35
    33ea:	71 f4       	brne	.+28     	; 0x3408 <vfprintf+0x8e>
    33ec:	0b c0       	rjmp	.+22     	; 0x3404 <vfprintf+0x8a>
    33ee:	8d 32       	cpi	r24, 0x2D	; 45
    33f0:	39 f0       	breq	.+14     	; 0x3400 <vfprintf+0x86>
    33f2:	80 33       	cpi	r24, 0x30	; 48
    33f4:	49 f4       	brne	.+18     	; 0x3408 <vfprintf+0x8e>
    33f6:	21 60       	ori	r18, 0x01	; 1
    33f8:	28 c0       	rjmp	.+80     	; 0x344a <vfprintf+0xd0>
    33fa:	22 60       	ori	r18, 0x02	; 2
    33fc:	24 60       	ori	r18, 0x04	; 4
    33fe:	25 c0       	rjmp	.+74     	; 0x344a <vfprintf+0xd0>
    3400:	28 60       	ori	r18, 0x08	; 8
    3402:	23 c0       	rjmp	.+70     	; 0x344a <vfprintf+0xd0>
    3404:	20 61       	ori	r18, 0x10	; 16
    3406:	21 c0       	rjmp	.+66     	; 0x344a <vfprintf+0xd0>
    3408:	27 fd       	sbrc	r18, 7
    340a:	27 c0       	rjmp	.+78     	; 0x345a <vfprintf+0xe0>
    340c:	38 2f       	mov	r19, r24
    340e:	30 53       	subi	r19, 0x30	; 48
    3410:	3a 30       	cpi	r19, 0x0A	; 10
    3412:	78 f4       	brcc	.+30     	; 0x3432 <vfprintf+0xb8>
    3414:	26 ff       	sbrs	r18, 6
    3416:	06 c0       	rjmp	.+12     	; 0x3424 <vfprintf+0xaa>
    3418:	fa e0       	ldi	r31, 0x0A	; 10
    341a:	7f 9e       	mul	r7, r31
    341c:	30 0d       	add	r19, r0
    341e:	11 24       	eor	r1, r1
    3420:	73 2e       	mov	r7, r19
    3422:	13 c0       	rjmp	.+38     	; 0x344a <vfprintf+0xd0>
    3424:	8a e0       	ldi	r24, 0x0A	; 10
    3426:	38 9e       	mul	r3, r24
    3428:	30 0d       	add	r19, r0
    342a:	11 24       	eor	r1, r1
    342c:	33 2e       	mov	r3, r19
    342e:	20 62       	ori	r18, 0x20	; 32
    3430:	0c c0       	rjmp	.+24     	; 0x344a <vfprintf+0xd0>
    3432:	8e 32       	cpi	r24, 0x2E	; 46
    3434:	21 f4       	brne	.+8      	; 0x343e <vfprintf+0xc4>
    3436:	26 fd       	sbrc	r18, 6
    3438:	72 c1       	rjmp	.+740    	; 0x371e <vfprintf+0x3a4>
    343a:	20 64       	ori	r18, 0x40	; 64
    343c:	06 c0       	rjmp	.+12     	; 0x344a <vfprintf+0xd0>
    343e:	8c 36       	cpi	r24, 0x6C	; 108
    3440:	11 f4       	brne	.+4      	; 0x3446 <vfprintf+0xcc>
    3442:	20 68       	ori	r18, 0x80	; 128
    3444:	02 c0       	rjmp	.+4      	; 0x344a <vfprintf+0xd0>
    3446:	88 36       	cpi	r24, 0x68	; 104
    3448:	41 f4       	brne	.+16     	; 0x345a <vfprintf+0xe0>
    344a:	f6 01       	movw	r30, r12
    344c:	93 fd       	sbrc	r25, 3
    344e:	85 91       	lpm	r24, Z+
    3450:	93 ff       	sbrs	r25, 3
    3452:	81 91       	ld	r24, Z+
    3454:	6f 01       	movw	r12, r30
    3456:	81 11       	cpse	r24, r1
    3458:	c0 cf       	rjmp	.-128    	; 0x33da <vfprintf+0x60>
    345a:	98 2f       	mov	r25, r24
    345c:	95 54       	subi	r25, 0x45	; 69
    345e:	93 30       	cpi	r25, 0x03	; 3
    3460:	18 f0       	brcs	.+6      	; 0x3468 <vfprintf+0xee>
    3462:	90 52       	subi	r25, 0x20	; 32
    3464:	93 30       	cpi	r25, 0x03	; 3
    3466:	28 f4       	brcc	.+10     	; 0x3472 <vfprintf+0xf8>
    3468:	0c 5f       	subi	r16, 0xFC	; 252
    346a:	1f 4f       	sbci	r17, 0xFF	; 255
    346c:	ff e3       	ldi	r31, 0x3F	; 63
    346e:	f9 83       	std	Y+1, r31	; 0x01
    3470:	0d c0       	rjmp	.+26     	; 0x348c <vfprintf+0x112>
    3472:	83 36       	cpi	r24, 0x63	; 99
    3474:	31 f0       	breq	.+12     	; 0x3482 <vfprintf+0x108>
    3476:	83 37       	cpi	r24, 0x73	; 115
    3478:	71 f0       	breq	.+28     	; 0x3496 <vfprintf+0x11c>
    347a:	83 35       	cpi	r24, 0x53	; 83
    347c:	09 f0       	breq	.+2      	; 0x3480 <vfprintf+0x106>
    347e:	5e c0       	rjmp	.+188    	; 0x353c <vfprintf+0x1c2>
    3480:	23 c0       	rjmp	.+70     	; 0x34c8 <vfprintf+0x14e>
    3482:	f8 01       	movw	r30, r16
    3484:	80 81       	ld	r24, Z
    3486:	89 83       	std	Y+1, r24	; 0x01
    3488:	0e 5f       	subi	r16, 0xFE	; 254
    348a:	1f 4f       	sbci	r17, 0xFF	; 255
    348c:	66 24       	eor	r6, r6
    348e:	63 94       	inc	r6
    3490:	71 2c       	mov	r7, r1
    3492:	54 01       	movw	r10, r8
    3494:	15 c0       	rjmp	.+42     	; 0x34c0 <vfprintf+0x146>
    3496:	28 01       	movw	r4, r16
    3498:	f2 e0       	ldi	r31, 0x02	; 2
    349a:	4f 0e       	add	r4, r31
    349c:	51 1c       	adc	r5, r1
    349e:	f8 01       	movw	r30, r16
    34a0:	a0 80       	ld	r10, Z
    34a2:	b1 80       	ldd	r11, Z+1	; 0x01
    34a4:	26 ff       	sbrs	r18, 6
    34a6:	03 c0       	rjmp	.+6      	; 0x34ae <vfprintf+0x134>
    34a8:	67 2d       	mov	r22, r7
    34aa:	70 e0       	ldi	r23, 0x00	; 0
    34ac:	02 c0       	rjmp	.+4      	; 0x34b2 <vfprintf+0x138>
    34ae:	6f ef       	ldi	r22, 0xFF	; 255
    34b0:	7f ef       	ldi	r23, 0xFF	; 255
    34b2:	c5 01       	movw	r24, r10
    34b4:	2c 87       	std	Y+12, r18	; 0x0c
    34b6:	0e 94 e8 1b 	call	0x37d0	; 0x37d0 <strnlen>
    34ba:	3c 01       	movw	r6, r24
    34bc:	82 01       	movw	r16, r4
    34be:	2c 85       	ldd	r18, Y+12	; 0x0c
    34c0:	6f e7       	ldi	r22, 0x7F	; 127
    34c2:	26 2e       	mov	r2, r22
    34c4:	22 22       	and	r2, r18
    34c6:	18 c0       	rjmp	.+48     	; 0x34f8 <vfprintf+0x17e>
    34c8:	28 01       	movw	r4, r16
    34ca:	f2 e0       	ldi	r31, 0x02	; 2
    34cc:	4f 0e       	add	r4, r31
    34ce:	51 1c       	adc	r5, r1
    34d0:	f8 01       	movw	r30, r16
    34d2:	a0 80       	ld	r10, Z
    34d4:	b1 80       	ldd	r11, Z+1	; 0x01
    34d6:	26 ff       	sbrs	r18, 6
    34d8:	03 c0       	rjmp	.+6      	; 0x34e0 <vfprintf+0x166>
    34da:	67 2d       	mov	r22, r7
    34dc:	70 e0       	ldi	r23, 0x00	; 0
    34de:	02 c0       	rjmp	.+4      	; 0x34e4 <vfprintf+0x16a>
    34e0:	6f ef       	ldi	r22, 0xFF	; 255
    34e2:	7f ef       	ldi	r23, 0xFF	; 255
    34e4:	c5 01       	movw	r24, r10
    34e6:	2c 87       	std	Y+12, r18	; 0x0c
    34e8:	0e 94 dd 1b 	call	0x37ba	; 0x37ba <strnlen_P>
    34ec:	3c 01       	movw	r6, r24
    34ee:	2c 85       	ldd	r18, Y+12	; 0x0c
    34f0:	50 e8       	ldi	r21, 0x80	; 128
    34f2:	25 2e       	mov	r2, r21
    34f4:	22 2a       	or	r2, r18
    34f6:	82 01       	movw	r16, r4
    34f8:	23 fc       	sbrc	r2, 3
    34fa:	1c c0       	rjmp	.+56     	; 0x3534 <vfprintf+0x1ba>
    34fc:	06 c0       	rjmp	.+12     	; 0x350a <vfprintf+0x190>
    34fe:	b7 01       	movw	r22, r14
    3500:	80 e2       	ldi	r24, 0x20	; 32
    3502:	90 e0       	ldi	r25, 0x00	; 0
    3504:	0e 94 f3 1b 	call	0x37e6	; 0x37e6 <fputc>
    3508:	3a 94       	dec	r3
    350a:	83 2d       	mov	r24, r3
    350c:	90 e0       	ldi	r25, 0x00	; 0
    350e:	68 16       	cp	r6, r24
    3510:	79 06       	cpc	r7, r25
    3512:	a8 f3       	brcs	.-22     	; 0x34fe <vfprintf+0x184>
    3514:	0f c0       	rjmp	.+30     	; 0x3534 <vfprintf+0x1ba>
    3516:	f5 01       	movw	r30, r10
    3518:	27 fc       	sbrc	r2, 7
    351a:	85 91       	lpm	r24, Z+
    351c:	27 fe       	sbrs	r2, 7
    351e:	81 91       	ld	r24, Z+
    3520:	5f 01       	movw	r10, r30
    3522:	b7 01       	movw	r22, r14
    3524:	90 e0       	ldi	r25, 0x00	; 0
    3526:	0e 94 f3 1b 	call	0x37e6	; 0x37e6 <fputc>
    352a:	31 10       	cpse	r3, r1
    352c:	3a 94       	dec	r3
    352e:	f1 e0       	ldi	r31, 0x01	; 1
    3530:	6f 1a       	sub	r6, r31
    3532:	71 08       	sbc	r7, r1
    3534:	61 14       	cp	r6, r1
    3536:	71 04       	cpc	r7, r1
    3538:	71 f7       	brne	.-36     	; 0x3516 <vfprintf+0x19c>
    353a:	ee c0       	rjmp	.+476    	; 0x3718 <vfprintf+0x39e>
    353c:	84 36       	cpi	r24, 0x64	; 100
    353e:	11 f0       	breq	.+4      	; 0x3544 <vfprintf+0x1ca>
    3540:	89 36       	cpi	r24, 0x69	; 105
    3542:	41 f5       	brne	.+80     	; 0x3594 <vfprintf+0x21a>
    3544:	f8 01       	movw	r30, r16
    3546:	27 ff       	sbrs	r18, 7
    3548:	07 c0       	rjmp	.+14     	; 0x3558 <vfprintf+0x1de>
    354a:	60 81       	ld	r22, Z
    354c:	71 81       	ldd	r23, Z+1	; 0x01
    354e:	82 81       	ldd	r24, Z+2	; 0x02
    3550:	93 81       	ldd	r25, Z+3	; 0x03
    3552:	0c 5f       	subi	r16, 0xFC	; 252
    3554:	1f 4f       	sbci	r17, 0xFF	; 255
    3556:	08 c0       	rjmp	.+16     	; 0x3568 <vfprintf+0x1ee>
    3558:	60 81       	ld	r22, Z
    355a:	71 81       	ldd	r23, Z+1	; 0x01
    355c:	88 27       	eor	r24, r24
    355e:	77 fd       	sbrc	r23, 7
    3560:	80 95       	com	r24
    3562:	98 2f       	mov	r25, r24
    3564:	0e 5f       	subi	r16, 0xFE	; 254
    3566:	1f 4f       	sbci	r17, 0xFF	; 255
    3568:	4f e6       	ldi	r20, 0x6F	; 111
    356a:	64 2e       	mov	r6, r20
    356c:	62 22       	and	r6, r18
    356e:	97 ff       	sbrs	r25, 7
    3570:	09 c0       	rjmp	.+18     	; 0x3584 <vfprintf+0x20a>
    3572:	90 95       	com	r25
    3574:	80 95       	com	r24
    3576:	70 95       	com	r23
    3578:	61 95       	neg	r22
    357a:	7f 4f       	sbci	r23, 0xFF	; 255
    357c:	8f 4f       	sbci	r24, 0xFF	; 255
    357e:	9f 4f       	sbci	r25, 0xFF	; 255
    3580:	f0 e8       	ldi	r31, 0x80	; 128
    3582:	6f 2a       	or	r6, r31
    3584:	2a e0       	ldi	r18, 0x0A	; 10
    3586:	30 e0       	ldi	r19, 0x00	; 0
    3588:	a4 01       	movw	r20, r8
    358a:	0e 94 1f 1c 	call	0x383e	; 0x383e <__ultoa_invert>
    358e:	a8 2e       	mov	r10, r24
    3590:	a8 18       	sub	r10, r8
    3592:	44 c0       	rjmp	.+136    	; 0x361c <vfprintf+0x2a2>
    3594:	85 37       	cpi	r24, 0x75	; 117
    3596:	31 f4       	brne	.+12     	; 0x35a4 <vfprintf+0x22a>
    3598:	3f ee       	ldi	r19, 0xEF	; 239
    359a:	b3 2e       	mov	r11, r19
    359c:	b2 22       	and	r11, r18
    359e:	2a e0       	ldi	r18, 0x0A	; 10
    35a0:	30 e0       	ldi	r19, 0x00	; 0
    35a2:	24 c0       	rjmp	.+72     	; 0x35ec <vfprintf+0x272>
    35a4:	99 ef       	ldi	r25, 0xF9	; 249
    35a6:	b9 2e       	mov	r11, r25
    35a8:	b2 22       	and	r11, r18
    35aa:	8f 36       	cpi	r24, 0x6F	; 111
    35ac:	b9 f0       	breq	.+46     	; 0x35dc <vfprintf+0x262>
    35ae:	20 f4       	brcc	.+8      	; 0x35b8 <vfprintf+0x23e>
    35b0:	88 35       	cpi	r24, 0x58	; 88
    35b2:	09 f0       	breq	.+2      	; 0x35b6 <vfprintf+0x23c>
    35b4:	b4 c0       	rjmp	.+360    	; 0x371e <vfprintf+0x3a4>
    35b6:	0d c0       	rjmp	.+26     	; 0x35d2 <vfprintf+0x258>
    35b8:	80 37       	cpi	r24, 0x70	; 112
    35ba:	21 f0       	breq	.+8      	; 0x35c4 <vfprintf+0x24a>
    35bc:	88 37       	cpi	r24, 0x78	; 120
    35be:	09 f0       	breq	.+2      	; 0x35c2 <vfprintf+0x248>
    35c0:	ae c0       	rjmp	.+348    	; 0x371e <vfprintf+0x3a4>
    35c2:	02 c0       	rjmp	.+4      	; 0x35c8 <vfprintf+0x24e>
    35c4:	20 e1       	ldi	r18, 0x10	; 16
    35c6:	b2 2a       	or	r11, r18
    35c8:	b4 fe       	sbrs	r11, 4
    35ca:	0b c0       	rjmp	.+22     	; 0x35e2 <vfprintf+0x268>
    35cc:	84 e0       	ldi	r24, 0x04	; 4
    35ce:	b8 2a       	or	r11, r24
    35d0:	08 c0       	rjmp	.+16     	; 0x35e2 <vfprintf+0x268>
    35d2:	24 ff       	sbrs	r18, 4
    35d4:	09 c0       	rjmp	.+18     	; 0x35e8 <vfprintf+0x26e>
    35d6:	e6 e0       	ldi	r30, 0x06	; 6
    35d8:	be 2a       	or	r11, r30
    35da:	06 c0       	rjmp	.+12     	; 0x35e8 <vfprintf+0x26e>
    35dc:	28 e0       	ldi	r18, 0x08	; 8
    35de:	30 e0       	ldi	r19, 0x00	; 0
    35e0:	05 c0       	rjmp	.+10     	; 0x35ec <vfprintf+0x272>
    35e2:	20 e1       	ldi	r18, 0x10	; 16
    35e4:	30 e0       	ldi	r19, 0x00	; 0
    35e6:	02 c0       	rjmp	.+4      	; 0x35ec <vfprintf+0x272>
    35e8:	20 e1       	ldi	r18, 0x10	; 16
    35ea:	32 e0       	ldi	r19, 0x02	; 2
    35ec:	f8 01       	movw	r30, r16
    35ee:	b7 fe       	sbrs	r11, 7
    35f0:	07 c0       	rjmp	.+14     	; 0x3600 <vfprintf+0x286>
    35f2:	60 81       	ld	r22, Z
    35f4:	71 81       	ldd	r23, Z+1	; 0x01
    35f6:	82 81       	ldd	r24, Z+2	; 0x02
    35f8:	93 81       	ldd	r25, Z+3	; 0x03
    35fa:	0c 5f       	subi	r16, 0xFC	; 252
    35fc:	1f 4f       	sbci	r17, 0xFF	; 255
    35fe:	06 c0       	rjmp	.+12     	; 0x360c <vfprintf+0x292>
    3600:	60 81       	ld	r22, Z
    3602:	71 81       	ldd	r23, Z+1	; 0x01
    3604:	80 e0       	ldi	r24, 0x00	; 0
    3606:	90 e0       	ldi	r25, 0x00	; 0
    3608:	0e 5f       	subi	r16, 0xFE	; 254
    360a:	1f 4f       	sbci	r17, 0xFF	; 255
    360c:	a4 01       	movw	r20, r8
    360e:	0e 94 1f 1c 	call	0x383e	; 0x383e <__ultoa_invert>
    3612:	a8 2e       	mov	r10, r24
    3614:	a8 18       	sub	r10, r8
    3616:	8f e7       	ldi	r24, 0x7F	; 127
    3618:	68 2e       	mov	r6, r24
    361a:	6b 20       	and	r6, r11
    361c:	66 fe       	sbrs	r6, 6
    361e:	0b c0       	rjmp	.+22     	; 0x3636 <vfprintf+0x2bc>
    3620:	36 2d       	mov	r19, r6
    3622:	3e 7f       	andi	r19, 0xFE	; 254
    3624:	a7 14       	cp	r10, r7
    3626:	50 f4       	brcc	.+20     	; 0x363c <vfprintf+0x2c2>
    3628:	64 fe       	sbrs	r6, 4
    362a:	0a c0       	rjmp	.+20     	; 0x3640 <vfprintf+0x2c6>
    362c:	62 fc       	sbrc	r6, 2
    362e:	08 c0       	rjmp	.+16     	; 0x3640 <vfprintf+0x2c6>
    3630:	36 2d       	mov	r19, r6
    3632:	3e 7e       	andi	r19, 0xEE	; 238
    3634:	05 c0       	rjmp	.+10     	; 0x3640 <vfprintf+0x2c6>
    3636:	ba 2c       	mov	r11, r10
    3638:	36 2d       	mov	r19, r6
    363a:	03 c0       	rjmp	.+6      	; 0x3642 <vfprintf+0x2c8>
    363c:	ba 2c       	mov	r11, r10
    363e:	01 c0       	rjmp	.+2      	; 0x3642 <vfprintf+0x2c8>
    3640:	b7 2c       	mov	r11, r7
    3642:	34 ff       	sbrs	r19, 4
    3644:	0d c0       	rjmp	.+26     	; 0x3660 <vfprintf+0x2e6>
    3646:	fe 01       	movw	r30, r28
    3648:	ea 0d       	add	r30, r10
    364a:	f1 1d       	adc	r31, r1
    364c:	80 81       	ld	r24, Z
    364e:	80 33       	cpi	r24, 0x30	; 48
    3650:	11 f4       	brne	.+4      	; 0x3656 <vfprintf+0x2dc>
    3652:	39 7e       	andi	r19, 0xE9	; 233
    3654:	09 c0       	rjmp	.+18     	; 0x3668 <vfprintf+0x2ee>
    3656:	32 ff       	sbrs	r19, 2
    3658:	06 c0       	rjmp	.+12     	; 0x3666 <vfprintf+0x2ec>
    365a:	b3 94       	inc	r11
    365c:	b3 94       	inc	r11
    365e:	04 c0       	rjmp	.+8      	; 0x3668 <vfprintf+0x2ee>
    3660:	83 2f       	mov	r24, r19
    3662:	86 78       	andi	r24, 0x86	; 134
    3664:	09 f0       	breq	.+2      	; 0x3668 <vfprintf+0x2ee>
    3666:	b3 94       	inc	r11
    3668:	33 fd       	sbrc	r19, 3
    366a:	14 c0       	rjmp	.+40     	; 0x3694 <vfprintf+0x31a>
    366c:	30 ff       	sbrs	r19, 0
    366e:	0f c0       	rjmp	.+30     	; 0x368e <vfprintf+0x314>
    3670:	7a 2c       	mov	r7, r10
    3672:	b3 14       	cp	r11, r3
    3674:	60 f4       	brcc	.+24     	; 0x368e <vfprintf+0x314>
    3676:	73 0c       	add	r7, r3
    3678:	7b 18       	sub	r7, r11
    367a:	b3 2c       	mov	r11, r3
    367c:	08 c0       	rjmp	.+16     	; 0x368e <vfprintf+0x314>
    367e:	b7 01       	movw	r22, r14
    3680:	80 e2       	ldi	r24, 0x20	; 32
    3682:	90 e0       	ldi	r25, 0x00	; 0
    3684:	3c 87       	std	Y+12, r19	; 0x0c
    3686:	0e 94 f3 1b 	call	0x37e6	; 0x37e6 <fputc>
    368a:	b3 94       	inc	r11
    368c:	3c 85       	ldd	r19, Y+12	; 0x0c
    368e:	b3 14       	cp	r11, r3
    3690:	b0 f3       	brcs	.-20     	; 0x367e <vfprintf+0x304>
    3692:	04 c0       	rjmp	.+8      	; 0x369c <vfprintf+0x322>
    3694:	b3 14       	cp	r11, r3
    3696:	10 f4       	brcc	.+4      	; 0x369c <vfprintf+0x322>
    3698:	3b 18       	sub	r3, r11
    369a:	01 c0       	rjmp	.+2      	; 0x369e <vfprintf+0x324>
    369c:	31 2c       	mov	r3, r1
    369e:	34 ff       	sbrs	r19, 4
    36a0:	12 c0       	rjmp	.+36     	; 0x36c6 <vfprintf+0x34c>
    36a2:	b7 01       	movw	r22, r14
    36a4:	80 e3       	ldi	r24, 0x30	; 48
    36a6:	90 e0       	ldi	r25, 0x00	; 0
    36a8:	3c 87       	std	Y+12, r19	; 0x0c
    36aa:	0e 94 f3 1b 	call	0x37e6	; 0x37e6 <fputc>
    36ae:	3c 85       	ldd	r19, Y+12	; 0x0c
    36b0:	32 ff       	sbrs	r19, 2
    36b2:	1e c0       	rjmp	.+60     	; 0x36f0 <vfprintf+0x376>
    36b4:	31 ff       	sbrs	r19, 1
    36b6:	03 c0       	rjmp	.+6      	; 0x36be <vfprintf+0x344>
    36b8:	88 e5       	ldi	r24, 0x58	; 88
    36ba:	90 e0       	ldi	r25, 0x00	; 0
    36bc:	02 c0       	rjmp	.+4      	; 0x36c2 <vfprintf+0x348>
    36be:	88 e7       	ldi	r24, 0x78	; 120
    36c0:	90 e0       	ldi	r25, 0x00	; 0
    36c2:	b7 01       	movw	r22, r14
    36c4:	0c c0       	rjmp	.+24     	; 0x36de <vfprintf+0x364>
    36c6:	83 2f       	mov	r24, r19
    36c8:	86 78       	andi	r24, 0x86	; 134
    36ca:	91 f0       	breq	.+36     	; 0x36f0 <vfprintf+0x376>
    36cc:	31 fd       	sbrc	r19, 1
    36ce:	02 c0       	rjmp	.+4      	; 0x36d4 <vfprintf+0x35a>
    36d0:	80 e2       	ldi	r24, 0x20	; 32
    36d2:	01 c0       	rjmp	.+2      	; 0x36d6 <vfprintf+0x35c>
    36d4:	8b e2       	ldi	r24, 0x2B	; 43
    36d6:	37 fd       	sbrc	r19, 7
    36d8:	8d e2       	ldi	r24, 0x2D	; 45
    36da:	b7 01       	movw	r22, r14
    36dc:	90 e0       	ldi	r25, 0x00	; 0
    36de:	0e 94 f3 1b 	call	0x37e6	; 0x37e6 <fputc>
    36e2:	06 c0       	rjmp	.+12     	; 0x36f0 <vfprintf+0x376>
    36e4:	b7 01       	movw	r22, r14
    36e6:	80 e3       	ldi	r24, 0x30	; 48
    36e8:	90 e0       	ldi	r25, 0x00	; 0
    36ea:	0e 94 f3 1b 	call	0x37e6	; 0x37e6 <fputc>
    36ee:	7a 94       	dec	r7
    36f0:	a7 14       	cp	r10, r7
    36f2:	c0 f3       	brcs	.-16     	; 0x36e4 <vfprintf+0x36a>
    36f4:	aa 94       	dec	r10
    36f6:	f4 01       	movw	r30, r8
    36f8:	ea 0d       	add	r30, r10
    36fa:	f1 1d       	adc	r31, r1
    36fc:	b7 01       	movw	r22, r14
    36fe:	80 81       	ld	r24, Z
    3700:	90 e0       	ldi	r25, 0x00	; 0
    3702:	0e 94 f3 1b 	call	0x37e6	; 0x37e6 <fputc>
    3706:	a1 10       	cpse	r10, r1
    3708:	f5 cf       	rjmp	.-22     	; 0x36f4 <vfprintf+0x37a>
    370a:	06 c0       	rjmp	.+12     	; 0x3718 <vfprintf+0x39e>
    370c:	b7 01       	movw	r22, r14
    370e:	80 e2       	ldi	r24, 0x20	; 32
    3710:	90 e0       	ldi	r25, 0x00	; 0
    3712:	0e 94 f3 1b 	call	0x37e6	; 0x37e6 <fputc>
    3716:	3a 94       	dec	r3
    3718:	31 10       	cpse	r3, r1
    371a:	f8 cf       	rjmp	.-16     	; 0x370c <vfprintf+0x392>
    371c:	42 ce       	rjmp	.-892    	; 0x33a2 <vfprintf+0x28>
    371e:	f7 01       	movw	r30, r14
    3720:	26 81       	ldd	r18, Z+6	; 0x06
    3722:	37 81       	ldd	r19, Z+7	; 0x07
    3724:	02 c0       	rjmp	.+4      	; 0x372a <vfprintf+0x3b0>
    3726:	2f ef       	ldi	r18, 0xFF	; 255
    3728:	3f ef       	ldi	r19, 0xFF	; 255
    372a:	c9 01       	movw	r24, r18
    372c:	2c 96       	adiw	r28, 0x0c	; 12
    372e:	e2 e1       	ldi	r30, 0x12	; 18
    3730:	0c 94 99 1c 	jmp	0x3932	; 0x3932 <__epilogue_restores__>

00003734 <__eerd_block_m328p>:
    3734:	dc 01       	movw	r26, r24
    3736:	cb 01       	movw	r24, r22

00003738 <__eerd_blraw_m328p>:
    3738:	fc 01       	movw	r30, r24
    373a:	f9 99       	sbic	0x1f, 1	; 31
    373c:	fe cf       	rjmp	.-4      	; 0x373a <__eerd_blraw_m328p+0x2>
    373e:	06 c0       	rjmp	.+12     	; 0x374c <__eerd_blraw_m328p+0x14>
    3740:	f2 bd       	out	0x22, r31	; 34
    3742:	e1 bd       	out	0x21, r30	; 33
    3744:	f8 9a       	sbi	0x1f, 0	; 31
    3746:	31 96       	adiw	r30, 0x01	; 1
    3748:	00 b4       	in	r0, 0x20	; 32
    374a:	0d 92       	st	X+, r0
    374c:	41 50       	subi	r20, 0x01	; 1
    374e:	50 40       	sbci	r21, 0x00	; 0
    3750:	b8 f7       	brcc	.-18     	; 0x3740 <__eerd_blraw_m328p+0x8>
    3752:	08 95       	ret

00003754 <__eerd_byte_m328p>:
    3754:	f9 99       	sbic	0x1f, 1	; 31
    3756:	fe cf       	rjmp	.-4      	; 0x3754 <__eerd_byte_m328p>
    3758:	92 bd       	out	0x22, r25	; 34
    375a:	81 bd       	out	0x21, r24	; 33
    375c:	f8 9a       	sbi	0x1f, 0	; 31
    375e:	99 27       	eor	r25, r25
    3760:	80 b5       	in	r24, 0x20	; 32
    3762:	08 95       	ret

00003764 <__eerd_dword_m328p>:
    3764:	a6 e1       	ldi	r26, 0x16	; 22
    3766:	b0 e0       	ldi	r27, 0x00	; 0
    3768:	44 e0       	ldi	r20, 0x04	; 4
    376a:	50 e0       	ldi	r21, 0x00	; 0
    376c:	0c 94 9c 1b 	jmp	0x3738	; 0x3738 <__eerd_blraw_m328p>

00003770 <__eewr_block_m328p>:
    3770:	dc 01       	movw	r26, r24
    3772:	cb 01       	movw	r24, r22
    3774:	03 c0       	rjmp	.+6      	; 0x377c <__eewr_block_m328p+0xc>
    3776:	2d 91       	ld	r18, X+
    3778:	0e 94 c3 1b 	call	0x3786	; 0x3786 <__eewr_r18_m328p>
    377c:	41 50       	subi	r20, 0x01	; 1
    377e:	50 40       	sbci	r21, 0x00	; 0
    3780:	d0 f7       	brcc	.-12     	; 0x3776 <__eewr_block_m328p+0x6>
    3782:	08 95       	ret

00003784 <__eewr_byte_m328p>:
    3784:	26 2f       	mov	r18, r22

00003786 <__eewr_r18_m328p>:
    3786:	f9 99       	sbic	0x1f, 1	; 31
    3788:	fe cf       	rjmp	.-4      	; 0x3786 <__eewr_r18_m328p>
    378a:	1f ba       	out	0x1f, r1	; 31
    378c:	92 bd       	out	0x22, r25	; 34
    378e:	81 bd       	out	0x21, r24	; 33
    3790:	20 bd       	out	0x20, r18	; 32
    3792:	0f b6       	in	r0, 0x3f	; 63
    3794:	f8 94       	cli
    3796:	fa 9a       	sbi	0x1f, 2	; 31
    3798:	f9 9a       	sbi	0x1f, 1	; 31
    379a:	0f be       	out	0x3f, r0	; 63
    379c:	01 96       	adiw	r24, 0x01	; 1
    379e:	08 95       	ret

000037a0 <__eewr_dword_m328p>:
    37a0:	24 2f       	mov	r18, r20
    37a2:	0e 94 c3 1b 	call	0x3786	; 0x3786 <__eewr_r18_m328p>
    37a6:	25 2f       	mov	r18, r21
    37a8:	0e 94 c3 1b 	call	0x3786	; 0x3786 <__eewr_r18_m328p>
    37ac:	0c 94 d8 1b 	jmp	0x37b0	; 0x37b0 <__eewr_word_m328p>

000037b0 <__eewr_word_m328p>:
    37b0:	0e 94 c2 1b 	call	0x3784	; 0x3784 <__eewr_byte_m328p>
    37b4:	27 2f       	mov	r18, r23
    37b6:	0c 94 c3 1b 	jmp	0x3786	; 0x3786 <__eewr_r18_m328p>

000037ba <strnlen_P>:
    37ba:	fc 01       	movw	r30, r24
    37bc:	05 90       	lpm	r0, Z+
    37be:	61 50       	subi	r22, 0x01	; 1
    37c0:	70 40       	sbci	r23, 0x00	; 0
    37c2:	01 10       	cpse	r0, r1
    37c4:	d8 f7       	brcc	.-10     	; 0x37bc <strnlen_P+0x2>
    37c6:	80 95       	com	r24
    37c8:	90 95       	com	r25
    37ca:	8e 0f       	add	r24, r30
    37cc:	9f 1f       	adc	r25, r31
    37ce:	08 95       	ret

000037d0 <strnlen>:
    37d0:	fc 01       	movw	r30, r24
    37d2:	61 50       	subi	r22, 0x01	; 1
    37d4:	70 40       	sbci	r23, 0x00	; 0
    37d6:	01 90       	ld	r0, Z+
    37d8:	01 10       	cpse	r0, r1
    37da:	d8 f7       	brcc	.-10     	; 0x37d2 <strnlen+0x2>
    37dc:	80 95       	com	r24
    37de:	90 95       	com	r25
    37e0:	8e 0f       	add	r24, r30
    37e2:	9f 1f       	adc	r25, r31
    37e4:	08 95       	ret

000037e6 <fputc>:
    37e6:	0f 93       	push	r16
    37e8:	1f 93       	push	r17
    37ea:	cf 93       	push	r28
    37ec:	df 93       	push	r29
    37ee:	8c 01       	movw	r16, r24
    37f0:	eb 01       	movw	r28, r22
    37f2:	8b 81       	ldd	r24, Y+3	; 0x03
    37f4:	81 fd       	sbrc	r24, 1
    37f6:	03 c0       	rjmp	.+6      	; 0x37fe <fputc+0x18>
    37f8:	0f ef       	ldi	r16, 0xFF	; 255
    37fa:	1f ef       	ldi	r17, 0xFF	; 255
    37fc:	1a c0       	rjmp	.+52     	; 0x3832 <fputc+0x4c>
    37fe:	82 ff       	sbrs	r24, 2
    3800:	0d c0       	rjmp	.+26     	; 0x381c <fputc+0x36>
    3802:	2e 81       	ldd	r18, Y+6	; 0x06
    3804:	3f 81       	ldd	r19, Y+7	; 0x07
    3806:	8c 81       	ldd	r24, Y+4	; 0x04
    3808:	9d 81       	ldd	r25, Y+5	; 0x05
    380a:	28 17       	cp	r18, r24
    380c:	39 07       	cpc	r19, r25
    380e:	64 f4       	brge	.+24     	; 0x3828 <fputc+0x42>
    3810:	e8 81       	ld	r30, Y
    3812:	f9 81       	ldd	r31, Y+1	; 0x01
    3814:	01 93       	st	Z+, r16
    3816:	f9 83       	std	Y+1, r31	; 0x01
    3818:	e8 83       	st	Y, r30
    381a:	06 c0       	rjmp	.+12     	; 0x3828 <fputc+0x42>
    381c:	e8 85       	ldd	r30, Y+8	; 0x08
    381e:	f9 85       	ldd	r31, Y+9	; 0x09
    3820:	80 2f       	mov	r24, r16
    3822:	09 95       	icall
    3824:	89 2b       	or	r24, r25
    3826:	41 f7       	brne	.-48     	; 0x37f8 <fputc+0x12>
    3828:	8e 81       	ldd	r24, Y+6	; 0x06
    382a:	9f 81       	ldd	r25, Y+7	; 0x07
    382c:	01 96       	adiw	r24, 0x01	; 1
    382e:	9f 83       	std	Y+7, r25	; 0x07
    3830:	8e 83       	std	Y+6, r24	; 0x06
    3832:	c8 01       	movw	r24, r16
    3834:	df 91       	pop	r29
    3836:	cf 91       	pop	r28
    3838:	1f 91       	pop	r17
    383a:	0f 91       	pop	r16
    383c:	08 95       	ret

0000383e <__ultoa_invert>:
    383e:	fa 01       	movw	r30, r20
    3840:	aa 27       	eor	r26, r26
    3842:	28 30       	cpi	r18, 0x08	; 8
    3844:	51 f1       	breq	.+84     	; 0x389a <__ultoa_invert+0x5c>
    3846:	20 31       	cpi	r18, 0x10	; 16
    3848:	81 f1       	breq	.+96     	; 0x38aa <__ultoa_invert+0x6c>
    384a:	e8 94       	clt
    384c:	6f 93       	push	r22
    384e:	6e 7f       	andi	r22, 0xFE	; 254
    3850:	6e 5f       	subi	r22, 0xFE	; 254
    3852:	7f 4f       	sbci	r23, 0xFF	; 255
    3854:	8f 4f       	sbci	r24, 0xFF	; 255
    3856:	9f 4f       	sbci	r25, 0xFF	; 255
    3858:	af 4f       	sbci	r26, 0xFF	; 255
    385a:	b1 e0       	ldi	r27, 0x01	; 1
    385c:	3e d0       	rcall	.+124    	; 0x38da <__ultoa_invert+0x9c>
    385e:	b4 e0       	ldi	r27, 0x04	; 4
    3860:	3c d0       	rcall	.+120    	; 0x38da <__ultoa_invert+0x9c>
    3862:	67 0f       	add	r22, r23
    3864:	78 1f       	adc	r23, r24
    3866:	89 1f       	adc	r24, r25
    3868:	9a 1f       	adc	r25, r26
    386a:	a1 1d       	adc	r26, r1
    386c:	68 0f       	add	r22, r24
    386e:	79 1f       	adc	r23, r25
    3870:	8a 1f       	adc	r24, r26
    3872:	91 1d       	adc	r25, r1
    3874:	a1 1d       	adc	r26, r1
    3876:	6a 0f       	add	r22, r26
    3878:	71 1d       	adc	r23, r1
    387a:	81 1d       	adc	r24, r1
    387c:	91 1d       	adc	r25, r1
    387e:	a1 1d       	adc	r26, r1
    3880:	20 d0       	rcall	.+64     	; 0x38c2 <__ultoa_invert+0x84>
    3882:	09 f4       	brne	.+2      	; 0x3886 <__ultoa_invert+0x48>
    3884:	68 94       	set
    3886:	3f 91       	pop	r19
    3888:	2a e0       	ldi	r18, 0x0A	; 10
    388a:	26 9f       	mul	r18, r22
    388c:	11 24       	eor	r1, r1
    388e:	30 19       	sub	r19, r0
    3890:	30 5d       	subi	r19, 0xD0	; 208
    3892:	31 93       	st	Z+, r19
    3894:	de f6       	brtc	.-74     	; 0x384c <__ultoa_invert+0xe>
    3896:	cf 01       	movw	r24, r30
    3898:	08 95       	ret
    389a:	46 2f       	mov	r20, r22
    389c:	47 70       	andi	r20, 0x07	; 7
    389e:	40 5d       	subi	r20, 0xD0	; 208
    38a0:	41 93       	st	Z+, r20
    38a2:	b3 e0       	ldi	r27, 0x03	; 3
    38a4:	0f d0       	rcall	.+30     	; 0x38c4 <__ultoa_invert+0x86>
    38a6:	c9 f7       	brne	.-14     	; 0x389a <__ultoa_invert+0x5c>
    38a8:	f6 cf       	rjmp	.-20     	; 0x3896 <__ultoa_invert+0x58>
    38aa:	46 2f       	mov	r20, r22
    38ac:	4f 70       	andi	r20, 0x0F	; 15
    38ae:	40 5d       	subi	r20, 0xD0	; 208
    38b0:	4a 33       	cpi	r20, 0x3A	; 58
    38b2:	18 f0       	brcs	.+6      	; 0x38ba <__ultoa_invert+0x7c>
    38b4:	49 5d       	subi	r20, 0xD9	; 217
    38b6:	31 fd       	sbrc	r19, 1
    38b8:	40 52       	subi	r20, 0x20	; 32
    38ba:	41 93       	st	Z+, r20
    38bc:	02 d0       	rcall	.+4      	; 0x38c2 <__ultoa_invert+0x84>
    38be:	a9 f7       	brne	.-22     	; 0x38aa <__ultoa_invert+0x6c>
    38c0:	ea cf       	rjmp	.-44     	; 0x3896 <__ultoa_invert+0x58>
    38c2:	b4 e0       	ldi	r27, 0x04	; 4
    38c4:	a6 95       	lsr	r26
    38c6:	97 95       	ror	r25
    38c8:	87 95       	ror	r24
    38ca:	77 95       	ror	r23
    38cc:	67 95       	ror	r22
    38ce:	ba 95       	dec	r27
    38d0:	c9 f7       	brne	.-14     	; 0x38c4 <__ultoa_invert+0x86>
    38d2:	00 97       	sbiw	r24, 0x00	; 0
    38d4:	61 05       	cpc	r22, r1
    38d6:	71 05       	cpc	r23, r1
    38d8:	08 95       	ret
    38da:	9b 01       	movw	r18, r22
    38dc:	ac 01       	movw	r20, r24
    38de:	0a 2e       	mov	r0, r26
    38e0:	06 94       	lsr	r0
    38e2:	57 95       	ror	r21
    38e4:	47 95       	ror	r20
    38e6:	37 95       	ror	r19
    38e8:	27 95       	ror	r18
    38ea:	ba 95       	dec	r27
    38ec:	c9 f7       	brne	.-14     	; 0x38e0 <__ultoa_invert+0xa2>
    38ee:	62 0f       	add	r22, r18
    38f0:	73 1f       	adc	r23, r19
    38f2:	84 1f       	adc	r24, r20
    38f4:	95 1f       	adc	r25, r21
    38f6:	a0 1d       	adc	r26, r0
    38f8:	08 95       	ret

000038fa <__prologue_saves__>:
    38fa:	2f 92       	push	r2
    38fc:	3f 92       	push	r3
    38fe:	4f 92       	push	r4
    3900:	5f 92       	push	r5
    3902:	6f 92       	push	r6
    3904:	7f 92       	push	r7
    3906:	8f 92       	push	r8
    3908:	9f 92       	push	r9
    390a:	af 92       	push	r10
    390c:	bf 92       	push	r11
    390e:	cf 92       	push	r12
    3910:	df 92       	push	r13
    3912:	ef 92       	push	r14
    3914:	ff 92       	push	r15
    3916:	0f 93       	push	r16
    3918:	1f 93       	push	r17
    391a:	cf 93       	push	r28
    391c:	df 93       	push	r29
    391e:	cd b7       	in	r28, 0x3d	; 61
    3920:	de b7       	in	r29, 0x3e	; 62
    3922:	ca 1b       	sub	r28, r26
    3924:	db 0b       	sbc	r29, r27
    3926:	0f b6       	in	r0, 0x3f	; 63
    3928:	f8 94       	cli
    392a:	de bf       	out	0x3e, r29	; 62
    392c:	0f be       	out	0x3f, r0	; 63
    392e:	cd bf       	out	0x3d, r28	; 61
    3930:	09 94       	ijmp

00003932 <__epilogue_restores__>:
    3932:	2a 88       	ldd	r2, Y+18	; 0x12
    3934:	39 88       	ldd	r3, Y+17	; 0x11
    3936:	48 88       	ldd	r4, Y+16	; 0x10
    3938:	5f 84       	ldd	r5, Y+15	; 0x0f
    393a:	6e 84       	ldd	r6, Y+14	; 0x0e
    393c:	7d 84       	ldd	r7, Y+13	; 0x0d
    393e:	8c 84       	ldd	r8, Y+12	; 0x0c
    3940:	9b 84       	ldd	r9, Y+11	; 0x0b
    3942:	aa 84       	ldd	r10, Y+10	; 0x0a
    3944:	b9 84       	ldd	r11, Y+9	; 0x09
    3946:	c8 84       	ldd	r12, Y+8	; 0x08
    3948:	df 80       	ldd	r13, Y+7	; 0x07
    394a:	ee 80       	ldd	r14, Y+6	; 0x06
    394c:	fd 80       	ldd	r15, Y+5	; 0x05
    394e:	0c 81       	ldd	r16, Y+4	; 0x04
    3950:	1b 81       	ldd	r17, Y+3	; 0x03
    3952:	aa 81       	ldd	r26, Y+2	; 0x02
    3954:	b9 81       	ldd	r27, Y+1	; 0x01
    3956:	ce 0f       	add	r28, r30
    3958:	d1 1d       	adc	r29, r1
    395a:	0f b6       	in	r0, 0x3f	; 63
    395c:	f8 94       	cli
    395e:	de bf       	out	0x3e, r29	; 62
    3960:	0f be       	out	0x3f, r0	; 63
    3962:	cd bf       	out	0x3d, r28	; 61
    3964:	ed 01       	movw	r28, r26
    3966:	08 95       	ret

00003968 <_exit>:
    3968:	f8 94       	cli

0000396a <__stop_program>:
    396a:	ff cf       	rjmp	.-2      	; 0x396a <__stop_program>
